# SymbolsHelper-Confirmed: 1.1.0 amd64
libindiAlignmentDriver.so.1 libindialignmentdriver1 #MINVER#
 _ZN4INDI18AlignmentSubsystem10ConvexHull10CheckEulerEiii@Base 1.0.0
 _ZN4INDI18AlignmentSubsystem10ConvexHull10CleanEdgesEv@Base 1.0.0
 _ZN4INDI18AlignmentSubsystem10ConvexHull10CleanFacesEv@Base 1.0.0
 _ZN4INDI18AlignmentSubsystem10ConvexHull10PrintEdgesERSt14basic_ofstreamIcSt11char_traitsIcEE@Base 1.0.0
 _ZN4INDI18AlignmentSubsystem10ConvexHull10PrintFacesERSt14basic_ofstreamIcSt11char_traitsIcEE@Base 1.0.0
 _ZN4INDI18AlignmentSubsystem10ConvexHull10PrintPointEPNS1_16tVertexStructureE@Base 1.0.0
 _ZN4INDI18AlignmentSubsystem10ConvexHull10VolumeSignEPNS1_14tFaceStructureEPNS1_16tVertexStructureE@Base 1.0.0
 _ZN4INDI18AlignmentSubsystem10ConvexHull11CheckEndptsEv@Base 1.0.0
 _ZN4INDI18AlignmentSubsystem10ConvexHull11ConsistencyEv@Base 1.0.0
 _ZN4INDI18AlignmentSubsystem10ConvexHull12MakeConeFaceEPNS1_14tEdgeStructureEPNS1_16tVertexStructureE@Base 1.0.0
 _ZN4INDI18AlignmentSubsystem10ConvexHull12MakeNullEdgeEv@Base 1.0.0
 _ZN4INDI18AlignmentSubsystem10ConvexHull12MakeNullFaceEv@Base 1.0.0
 _ZN4INDI18AlignmentSubsystem10ConvexHull12ReadVerticesEv@Base 1.0.0
 _ZN4INDI18AlignmentSubsystem10ConvexHull13CleanVerticesEPPNS1_16tVertexStructureE@Base 1.0.0
 _ZN4INDI18AlignmentSubsystem10ConvexHull13ConstructHullEv@Base 1.0.0
 _ZN4INDI18AlignmentSubsystem10ConvexHull13MakeNewVertexEdddi@Base 1.0.0
 _ZN4INDI18AlignmentSubsystem10ConvexHull13PrintVerticesERSt14basic_ofstreamIcSt11char_traitsIcEE@Base 1.0.0
 _ZN4INDI18AlignmentSubsystem10ConvexHull14DoubleTriangleEv@Base 1.0.0
 _ZN4INDI18AlignmentSubsystem10ConvexHull14MakeNullVertexEv@Base 1.0.0
 _ZN4INDI18AlignmentSubsystem10ConvexHull16EdgeOrderOnFacesEv@Base 1.0.0
 _ZN4INDI18AlignmentSubsystem10ConvexHull5PrintEv@Base 1.0.0
 _ZN4INDI18AlignmentSubsystem10ConvexHull5ResetEv@Base 1.0.0
 _ZN4INDI18AlignmentSubsystem10ConvexHull6AddOneEPNS1_16tVertexStructureE@Base 1.0.0
 _ZN4INDI18AlignmentSubsystem10ConvexHull6ChecksEv@Base 1.0.0
 _ZN4INDI18AlignmentSubsystem10ConvexHull6SubVecEPiS2_S2_@Base 1.0.0
 _ZN4INDI18AlignmentSubsystem10ConvexHull7CleanUpEPPNS1_16tVertexStructureE@Base 1.0.0
 _ZN4INDI18AlignmentSubsystem10ConvexHull7MakeCcwEPNS1_14tFaceStructureEPNS1_14tEdgeStructureEPNS1_16tVertexStructureE@Base 1.0.0
 _ZN4INDI18AlignmentSubsystem10ConvexHull7VolumeiEPNS1_14tFaceStructureEPNS1_16tVertexStructureE@Base 1.0.0
 _ZN4INDI18AlignmentSubsystem10ConvexHull8MakeFaceEPNS1_16tVertexStructureES3_S3_PNS1_14tFaceStructureE@Base 1.0.0
 _ZN4INDI18AlignmentSubsystem10ConvexHull8PrintObjEPKc@Base 1.0.0
 _ZN4INDI18AlignmentSubsystem10ConvexHull8PrintOutEPKcPNS1_16tVertexStructureE@Base 1.0.0
 _ZN4INDI18AlignmentSubsystem10ConvexHull9CollinearEPNS1_16tVertexStructureES3_S3_@Base 1.0.0
 _ZN4INDI18AlignmentSubsystem10ConvexHull9ConvexityEv@Base 1.0.0
 _ZN4INDI18AlignmentSubsystem10ConvexHullD0Ev@Base 1.0.0
 _ZN4INDI18AlignmentSubsystem10ConvexHullD1Ev@Base 1.0.0
 _ZN4INDI18AlignmentSubsystem10ConvexHullD2Ev@Base 1.0.0
 _ZN4INDI18AlignmentSubsystem10MathPlugin10InitialiseEPNS0_16InMemoryDatabaseE@Base 1.0.0
 _ZN4INDI18AlignmentSubsystem10MathPlugin28GetApproximateMountAlignmentEv@Base 1.0.0
 _ZN4INDI18AlignmentSubsystem10MathPlugin28SetApproximateMountAlignmentENS0_14MountAlignmentE@Base 1.0.0
 _ZN4INDI18AlignmentSubsystem13DBG_ALIGNMENTE@Base 1.0.0
 _ZN4INDI18AlignmentSubsystem15BasicMathPlugin10InitialiseEPNS0_16InMemoryDatabaseE@Base 1.0.0
 _ZN4INDI18AlignmentSubsystem15BasicMathPlugin15MatrixInvert3x3EP10gsl_matrixS3_@Base 1.0.0
 _ZN4INDI18AlignmentSubsystem15BasicMathPlugin20Matrix3x3DeterminantEP10gsl_matrix@Base 1.0.0
 _ZN4INDI18AlignmentSubsystem15BasicMathPlugin20MatrixMatrixMultiplyEP10gsl_matrixS3_S3_@Base 1.0.0
 _ZN4INDI18AlignmentSubsystem15BasicMathPlugin20MatrixVectorMultiplyEP10gsl_matrixP10gsl_vectorS5_@Base 1.0.0
 _ZN4INDI18AlignmentSubsystem15BasicMathPlugin23RayTriangleIntersectionERNS0_24TelescopeDirectionVectorES3_S3_S3_@Base 1.0.0
 _ZN4INDI18AlignmentSubsystem15BasicMathPlugin29TransformCelestialToTelescopeEdddRNS0_24TelescopeDirectionVectorE@Base 1.0.0
 _ZN4INDI18AlignmentSubsystem15BasicMathPlugin29TransformTelescopeToCelestialERKNS0_24TelescopeDirectionVectorERdS5_@Base 1.0.0
 _ZN4INDI18AlignmentSubsystem15BasicMathPlugin5Dump3EPKcP10gsl_vector@Base 1.0.0
 _ZN4INDI18AlignmentSubsystem15BasicMathPlugin7Dump3x3EPKcP10gsl_matrix@Base 1.0.0
 _ZN4INDI18AlignmentSubsystem15BasicMathPluginC1Ev@Base 1.0.0
 _ZN4INDI18AlignmentSubsystem15BasicMathPluginC2Ev@Base 1.0.0
 _ZN4INDI18AlignmentSubsystem15BasicMathPluginD0Ev@Base 1.0.0
 _ZN4INDI18AlignmentSubsystem15BasicMathPluginD1Ev@Base 1.0.0
 _ZN4INDI18AlignmentSubsystem15BasicMathPluginD2Ev@Base 1.0.0
 _ZN4INDI18AlignmentSubsystem16InMemoryDatabase12LoadDatabaseEPKc@Base 1.0.0
 _ZN4INDI18AlignmentSubsystem16InMemoryDatabase12SaveDatabaseEPKc@Base 1.0.0
 _ZN4INDI18AlignmentSubsystem16InMemoryDatabase23SetLoadDatabaseCallbackEPFvPvES2_@Base 1.0.0
 _ZN4INDI18AlignmentSubsystem16InMemoryDatabase28GetDatabaseReferencePositionER13ln_lnlat_posn@Base 1.0.0
 _ZN4INDI18AlignmentSubsystem16InMemoryDatabase28SetDatabaseReferencePositionEdd@Base 1.0.0
 _ZN4INDI18AlignmentSubsystem16InMemoryDatabaseD0Ev@Base 1.0.0
 _ZN4INDI18AlignmentSubsystem16InMemoryDatabaseD1Ev@Base 1.0.0
 _ZN4INDI18AlignmentSubsystem16InMemoryDatabaseD2Ev@Base 1.0.0
 _ZN4INDI18AlignmentSubsystem17BuiltInMathPlugin26CalculateTransformMatricesERKNS0_24TelescopeDirectionVectorES4_S4_S4_S4_S4_P10gsl_matrixS6_@Base 1.0.0
 _ZN4INDI18AlignmentSubsystem17BuiltInMathPluginD0Ev@Base 1.0.0
 _ZN4INDI18AlignmentSubsystem17BuiltInMathPluginD1Ev@Base 1.0.0
 _ZN4INDI18AlignmentSubsystem17BuiltInMathPluginD2Ev@Base 1.0.0
 _ZN4INDI18AlignmentSubsystem20MathPluginManagement10InitialiseEPNS0_16InMemoryDatabaseE@Base 1.0.0
 _ZN4INDI18AlignmentSubsystem20MathPluginManagement14InitPropertiesEPNS_9TelescopeE@Base 1.0.0
 _ZN4INDI18AlignmentSubsystem20MathPluginManagement16EnumeratePluginsEv@Base 1.0.0
 _ZN4INDI18AlignmentSubsystem20MathPluginManagement20SaveConfigPropertiesEP8_IO_FILE@Base 1.0.0
 _ZN4INDI18AlignmentSubsystem20MathPluginManagement21ProcessTextPropertiesEPNS_9TelescopeEPKcPPcS7_i@Base 1.0.0
 _ZN4INDI18AlignmentSubsystem20MathPluginManagement23ProcessSwitchPropertiesEPNS_9TelescopeEPKcP7ISStatePPci@Base 1.0.0
 _ZN4INDI18AlignmentSubsystem20MathPluginManagement28GetApproximateMountAlignmentEv@Base 1.0.0
 _ZN4INDI18AlignmentSubsystem20MathPluginManagement28SetApproximateMountAlignmentENS0_14MountAlignmentE@Base 1.0.0
 _ZN4INDI18AlignmentSubsystem20MathPluginManagement29TransformCelestialToTelescopeEdddRNS0_24TelescopeDirectionVectorE@Base 1.0.0
 _ZN4INDI18AlignmentSubsystem20MathPluginManagement29TransformTelescopeToCelestialERKNS0_24TelescopeDirectionVectorERdS5_@Base 1.0.0
 _ZN4INDI18AlignmentSubsystem20MathPluginManagement41SetApproximateMountAlignmentFromMountTypeENS1_9MountTypeE@Base 1.0.0
 _ZN4INDI18AlignmentSubsystem20MathPluginManagementD0Ev@Base 1.0.0
 _ZN4INDI18AlignmentSubsystem20MathPluginManagementD1Ev@Base 1.0.0
 _ZN4INDI18AlignmentSubsystem20MathPluginManagementD2Ev@Base 1.0.0
 _ZN4INDI18AlignmentSubsystem24TelescopeDirectionVector13RotateAroundYEd@Base 1.0.0
 _ZN4INDI18AlignmentSubsystem28AlignmentSubsystemForDrivers22MyDatabaseLoadCallbackEPv@Base 1.0.0
 _ZN4INDI18AlignmentSubsystem28AlignmentSubsystemForDrivers23InitAlignmentPropertiesEPNS_9TelescopeE@Base 1.1.0
 _ZN4INDI18AlignmentSubsystem28AlignmentSubsystemForDrivers29SaveAlignmentConfigPropertiesEP8_IO_FILE@Base 1.1.0
 _ZN4INDI18AlignmentSubsystem28AlignmentSubsystemForDrivers30ProcessAlignmentBLOBPropertiesEPNS_9TelescopeEPKcPiS6_PPcS8_S8_i@Base 1.1.0
 _ZN4INDI18AlignmentSubsystem28AlignmentSubsystemForDrivers30ProcessAlignmentTextPropertiesEPNS_9TelescopeEPKcPPcS7_i@Base 1.1.0
 _ZN4INDI18AlignmentSubsystem28AlignmentSubsystemForDrivers32ProcessAlignmentNumberPropertiesEPNS_9TelescopeEPKcPdPPci@Base 1.1.0
 _ZN4INDI18AlignmentSubsystem28AlignmentSubsystemForDrivers32ProcessAlignmentSwitchPropertiesEPNS_9TelescopeEPKcP7ISStatePPci@Base 1.1.0
 _ZN4INDI18AlignmentSubsystem28AlignmentSubsystemForDriversC1Ev@Base 1.0.0
 _ZN4INDI18AlignmentSubsystem28AlignmentSubsystemForDriversC2Ev@Base 1.0.0
 _ZN4INDI18AlignmentSubsystem28AlignmentSubsystemForDriversD0Ev@Base 1.0.0
 _ZN4INDI18AlignmentSubsystem28AlignmentSubsystemForDriversD1Ev@Base 1.0.0
 _ZN4INDI18AlignmentSubsystem28AlignmentSubsystemForDriversD2Ev@Base 1.0.0
 _ZN4INDI18AlignmentSubsystem31MapPropertiesToInMemoryDatabase10UpdateSizeEv@Base 1.0.0
 _ZN4INDI18AlignmentSubsystem31MapPropertiesToInMemoryDatabase14InitPropertiesEPNS_9TelescopeE@Base 1.0.0
 _ZN4INDI18AlignmentSubsystem31MapPropertiesToInMemoryDatabase14UpdateLocationEddd@Base 1.0.0
 _ZN4INDI18AlignmentSubsystem31MapPropertiesToInMemoryDatabase21ProcessBlobPropertiesEPNS_9TelescopeEPKcPiS6_PPcS8_S8_i@Base 1.0.0
 _ZN4INDI18AlignmentSubsystem31MapPropertiesToInMemoryDatabase23ProcessNumberPropertiesEPNS_9TelescopeEPKcPdPPci@Base 1.0.0
 _ZN4INDI18AlignmentSubsystem31MapPropertiesToInMemoryDatabase23ProcessSwitchPropertiesEPNS_9TelescopeEPKcP7ISStatePPci@Base 1.0.0
 _ZN4INDI18AlignmentSubsystem31MapPropertiesToInMemoryDatabaseD0Ev@Base 1.0.0
 _ZN4INDI18AlignmentSubsystem31MapPropertiesToInMemoryDatabaseD1Ev@Base 1.0.0
 _ZN4INDI18AlignmentSubsystem31MapPropertiesToInMemoryDatabaseD2Ev@Base 1.0.0
 _ZN4INDI18AlignmentSubsystem40TelescopeDirectionVectorSupportFunctions47SphericalCoordinateFromTelescopeDirectionVectorENS0_24TelescopeDirectionVectorERdNS1_21AzimuthAngleDirectionES3_NS1_19PolarAngleDirectionE@Base 1.0.0
 _ZN4INDI18AlignmentSubsystem40TelescopeDirectionVectorSupportFunctions47TelescopeDirectionVectorFromSphericalCoordinateEdNS1_21AzimuthAngleDirectionEdNS1_19PolarAngleDirectionE@Base 1.0.0
 _ZN4INDI18AlignmentSubsystem40TelescopeDirectionVectorSupportFunctionsD0Ev@Base 1.0.0
 _ZN4INDI18AlignmentSubsystem40TelescopeDirectionVectorSupportFunctionsD1Ev@Base 1.0.0
 _ZN4INDI18AlignmentSubsystem40TelescopeDirectionVectorSupportFunctionsD2Ev@Base 1.0.0
 _ZNK4INDI18AlignmentSubsystem16InMemoryDatabase26CheckForDuplicateSyncPointERKNS0_22AlignmentDatabaseEntryEd@Base 1.0.0
 _ZNSt6vectorIN4INDI18AlignmentSubsystem22AlignmentDatabaseEntryESaIS2_EE13_M_insert_auxIIRKS2_EEEvN9__gnu_cxx17__normal_iteratorIPS2_S4_EEDpOT_@Base 1.0.0
 _ZNSt6vectorIN4INDI18AlignmentSubsystem22AlignmentDatabaseEntryESaIS2_EE13_M_insert_auxIJRKS2_EEEvN9__gnu_cxx17__normal_iteratorIPS2_S4_EEDpOT_@Base 1.0.0
 _ZNSt6vectorIN4INDI18AlignmentSubsystem22AlignmentDatabaseEntryESaIS2_EE19_M_emplace_back_auxIIRKS2_EEEvDpOT_@Base 1.0.0
 _ZNSt6vectorIN4INDI18AlignmentSubsystem22AlignmentDatabaseEntryESaIS2_EE19_M_emplace_back_auxIJRKS2_EEEvDpOT_@Base 1.0.0
 _ZNSt6vectorIN4INDI18AlignmentSubsystem24TelescopeDirectionVectorESaIS2_EE19_M_emplace_back_auxIIRKS2_EEEvDpOT_@Base 1.0.0
 _ZNSt6vectorIN4INDI18AlignmentSubsystem24TelescopeDirectionVectorESaIS2_EE19_M_emplace_back_auxIJRKS2_EEEvDpOT_@Base 1.0.0
 (optional=templinst)_ZNSt6vectorINSt7__cxx1112basic_stringIcSt11char_traitsIcESaIcEEESaIS5_EE19_M_emplace_back_auxIIRKS5_EEEvDpOT_@Base 1.0.0
 (optional=templinst|arch=armel armhf hppa mips mipsel powerpc ppc64 ppc64el)_ZNSt6vectorINSt7__cxx1112basic_stringIcSt11char_traitsIcESaIcEEESaIS5_EE19_M_emplace_back_auxIIS5_EEEvDpOT_@Base 1.0.0
 (optional=templinst)_ZNSt6vectorINSt7__cxx1112basic_stringIcSt11char_traitsIcESaIcEEESaIS5_EE19_M_emplace_back_auxIJRKS5_EEEvDpOT_@Base 1.0.0
 (optional=templinst|arch=armel armhf hppa mips mipsel powerpc ppc64 ppc64el)_ZNSt6vectorINSt7__cxx1112basic_stringIcSt11char_traitsIcESaIcEEESaIS5_EE19_M_emplace_back_auxIJS5_EEEvDpOT_@Base 1.0.0
 (optional=templinst)_ZNSt6vectorINSt7__cxx1112basic_stringIcSt11char_traitsIcESaIcEEESaIS5_EED1Ev@Base 1.0.0
 (optional=templinst)_ZNSt6vectorINSt7__cxx1112basic_stringIcSt11char_traitsIcESaIcEEESaIS5_EED2Ev@Base 1.0.0
 (optional=templinst|arch=!hppa !x32)_ZNSt8_Rb_treeIdSt4pairIKdPKN4INDI18AlignmentSubsystem22AlignmentDatabaseEntryEESt10_Select1stIS7_ESt4lessIdESaIS7_EE22_M_emplace_hint_uniqueIIRKSt21piecewise_construct_tSt5tupleIIOdEESI_IIEEEEESt17_Rb_tree_iteratorIS7_ESt23_Rb_tree_const_iteratorIS7_EDpOT_@Base 1.0.0
 (optional=templinst|arch=!hppa !x32)_ZNSt8_Rb_treeIdSt4pairIKdPKN4INDI18AlignmentSubsystem22AlignmentDatabaseEntryEESt10_Select1stIS7_ESt4lessIdESaIS7_EE22_M_emplace_hint_uniqueIJRKSt21piecewise_construct_tSt5tupleIJOdEESI_IJEEEEESt17_Rb_tree_iteratorIS7_ESt23_Rb_tree_const_iteratorIS7_EDpOT_@Base 1.0.0
 _ZNSt8_Rb_treeIdSt4pairIKdPKN4INDI18AlignmentSubsystem22AlignmentDatabaseEntryEESt10_Select1stIS7_ESt4lessIdESaIS7_EE24_M_get_insert_unique_posERS1_@Base 1.0.0
 (optional=templinst|arch=!armel !armhf !i386 !kfreebsd-i386 !mips !mipsel !powerpc !ppc64 !s390x)_ZNSt8_Rb_treeIdSt4pairIKdPKN4INDI18AlignmentSubsystem22AlignmentDatabaseEntryEESt10_Select1stIS7_ESt4lessIdESaIS7_EE29_M_get_insert_hint_unique_posESt23_Rb_tree_const_iteratorIS7_ERS1_@Base 1.0.0
 _ZNSt8_Rb_treeIdSt4pairIKdPKN4INDI18AlignmentSubsystem22AlignmentDatabaseEntryEESt10_Select1stIS7_ESt4lessIdESaIS7_EE8_M_eraseEPSt13_Rb_tree_nodeIS7_E@Base 1.0.0
 (optional=templinst)_ZNSt8_Rb_treeIiSt4pairIKiiESt10_Select1stIS2_ESt4lessIiESaIS2_EE22_M_emplace_hint_uniqueIIRKSt21piecewise_construct_tSt5tupleIIRS1_EESD_IIEEEEESt17_Rb_tree_iteratorIS2_ESt23_Rb_tree_const_iteratorIS2_EDpOT_@Base 1.0.0
 (optional=templinst)_ZNSt8_Rb_treeIiSt4pairIKiiESt10_Select1stIS2_ESt4lessIiESaIS2_EE22_M_emplace_hint_uniqueIJRKSt21piecewise_construct_tSt5tupleIJRS1_EESD_IJEEEEESt17_Rb_tree_iteratorIS2_ESt23_Rb_tree_const_iteratorIS2_EDpOT_@Base 1.0.0
 _ZNSt8_Rb_treeIiSt4pairIKiiESt10_Select1stIS2_ESt4lessIiESaIS2_EE24_M_get_insert_unique_posERS1_@Base 1.0.0
 (optional=templinst|arch=!armel !armhf !i386 !kfreebsd-i386 !mips !mipsel !powerpc !ppc64 !s390x)_ZNSt8_Rb_treeIiSt4pairIKiiESt10_Select1stIS2_ESt4lessIiESaIS2_EE29_M_get_insert_hint_unique_posESt23_Rb_tree_const_iteratorIS2_ERS1_@Base 1.0.0
 _ZNSt8_Rb_treeIiSt4pairIKiiESt10_Select1stIS2_ESt4lessIiESaIS2_EE8_M_eraseEPSt13_Rb_tree_nodeIS2_E@Base 1.0.0
 _ZTIN4INDI18AlignmentSubsystem10ConvexHullE@Base 1.0.0
 _ZTIN4INDI18AlignmentSubsystem10MathPluginE@Base 1.0.0
 _ZTIN4INDI18AlignmentSubsystem15BasicMathPluginE@Base 1.0.0
 _ZTIN4INDI18AlignmentSubsystem16InMemoryDatabaseE@Base 1.0.0
 _ZTIN4INDI18AlignmentSubsystem17BuiltInMathPluginE@Base 1.0.0
 _ZTIN4INDI18AlignmentSubsystem20MathPluginManagementE@Base 1.0.0
 _ZTIN4INDI18AlignmentSubsystem28AlignmentSubsystemForDriversE@Base 1.0.0
 _ZTIN4INDI18AlignmentSubsystem31MapPropertiesToInMemoryDatabaseE@Base 1.0.0
 _ZTIN4INDI18AlignmentSubsystem32AlignmentSubsystemForMathPluginsE@Base 1.0.0
 _ZTIN4INDI18AlignmentSubsystem40TelescopeDirectionVectorSupportFunctionsE@Base 1.0.0
 _ZTSN4INDI18AlignmentSubsystem10ConvexHullE@Base 1.0.0
 _ZTSN4INDI18AlignmentSubsystem10MathPluginE@Base 1.0.0
 _ZTSN4INDI18AlignmentSubsystem15BasicMathPluginE@Base 1.0.0
 _ZTSN4INDI18AlignmentSubsystem16InMemoryDatabaseE@Base 1.0.0
 _ZTSN4INDI18AlignmentSubsystem17BuiltInMathPluginE@Base 1.0.0
 _ZTSN4INDI18AlignmentSubsystem20MathPluginManagementE@Base 1.0.0
 _ZTSN4INDI18AlignmentSubsystem28AlignmentSubsystemForDriversE@Base 1.0.0
 _ZTSN4INDI18AlignmentSubsystem31MapPropertiesToInMemoryDatabaseE@Base 1.0.0
 _ZTSN4INDI18AlignmentSubsystem32AlignmentSubsystemForMathPluginsE@Base 1.0.0
 _ZTSN4INDI18AlignmentSubsystem40TelescopeDirectionVectorSupportFunctionsE@Base 1.0.0
 _ZTVN4INDI18AlignmentSubsystem10ConvexHullE@Base 1.0.0
 _ZTVN4INDI18AlignmentSubsystem10MathPluginE@Base 1.0.0
 _ZTVN4INDI18AlignmentSubsystem15BasicMathPluginE@Base 1.0.0
 _ZTVN4INDI18AlignmentSubsystem16InMemoryDatabaseE@Base 1.0.0
 _ZTVN4INDI18AlignmentSubsystem17BuiltInMathPluginE@Base 1.0.0
 _ZTVN4INDI18AlignmentSubsystem20MathPluginManagementE@Base 1.0.0
 _ZTVN4INDI18AlignmentSubsystem28AlignmentSubsystemForDriversE@Base 1.0.0
 _ZTVN4INDI18AlignmentSubsystem31MapPropertiesToInMemoryDatabaseE@Base 1.0.0
 (c++)"non-virtual thunk to INDI::AlignmentSubsystem::AlignmentSubsystemForDrivers::~AlignmentSubsystemForDrivers()@Base" 1.0.0
 (c++)"non-virtual thunk to INDI::AlignmentSubsystem::BasicMathPlugin::~BasicMathPlugin()@Base" 1.0.0
 (c++)"non-virtual thunk to INDI::AlignmentSubsystem::BuiltInMathPlugin::~BuiltInMathPlugin()@Base" 1.0.0
