# SymbolsHelper-Confirmed: 0.9.7 amd64
libindidriver.so.0c libindidriver0c #MINVER#
 COMMUNICATION_TAB@Base 0.9.7
 DATETIME_TAB@Base 0.9.7
 FILTER_TAB@Base 0.9.7
 FOCUS_TAB@Base 0.9.7
 GUIDE_CONTROL_TAB@Base 0.9.7
 GUIDE_HEAD_TAB@Base 0.9.7
 GUIDE_TAB@Base 0.9.7
 IDDefBLOB@Base 0.9.7
 IDDefLight@Base 0.9.7
 IDDefNumber@Base 0.9.7
 IDDefSwitch@Base 0.9.7
 IDDefText@Base 0.9.7
 IDDelete@Base 0.9.7
 IDLog@Base 0.9.7
 IDMessage@Base 0.9.7
 IDSetBLOB@Base 0.9.7
 IDSetLight@Base 0.9.7
 IDSetNumber@Base 0.9.7
 IDSetSwitch@Base 0.9.7
 IDSetText@Base 0.9.7
 IDSnoopBLOBs@Base 0.9.7
 IDSnoopDevice@Base 0.9.7
 IEAddCallback@Base 0.9.7
 IEAddTimer@Base 0.9.7
 IEAddWorkProc@Base 0.9.7
 IEDeferLoop0@Base 0.9.7
 IEDeferLoop@Base 0.9.7
 IERmCallback@Base 0.9.7
 IERmTimer@Base 0.9.7
 IERmWorkProc@Base 0.9.7
 IMAGE_INFO_TAB@Base 0.9.7
 IMAGE_SETTINGS_TAB@Base 0.9.7
 IUFillBLOB@Base 0.9.7
 IUFillBLOBVector@Base 0.9.7
 IUFillLight@Base 0.9.7
 IUFillLightVector@Base 0.9.7
 IUFillNumber@Base 0.9.7
 IUFillNumberVector@Base 0.9.7
 IUFillSwitch@Base 0.9.7
 IUFillSwitchVector@Base 0.9.7
 IUFillText@Base 0.9.7
 IUFillTextVector@Base 0.9.7
 IUFindBLOB@Base 0.9.7
 IUFindIndex@Base 0.9.7
 IUFindLight@Base 0.9.7
 IUFindNumber@Base 0.9.7
 IUFindOnSwitch@Base 0.9.7
 IUFindOnSwitchIndex@Base 0.9.7
 IUFindSwitch@Base 0.9.7
 IUFindText@Base 0.9.7
 IUGetConfigFP@Base 0.9.7
 IUReadConfig@Base 0.9.7
 IUResetSwitch@Base 0.9.7
 IUSaveBLOB@Base 0.9.7
 IUSaveConfigBLOB@Base 0.9.7
 IUSaveConfigNumber@Base 0.9.7
 IUSaveConfigSwitch@Base 0.9.7
 IUSaveConfigTag@Base 0.9.7
 IUSaveConfigText@Base 0.9.7
 IUSaveDefaultConfig@Base 0.9.7
 IUSaveText@Base 0.9.7
 IUSnoopBLOB@Base 0.9.7
 IUSnoopLight@Base 0.9.7
 IUSnoopNumber@Base 0.9.7
 IUSnoopSwitch@Base 0.9.7
 IUSnoopText@Base 0.9.7
 IUUpdateBLOB@Base 0.9.7
 IUUpdateMinMax@Base 0.9.7
 IUUpdateNumber@Base 0.9.7
 IUUpdateSwitch@Base 0.9.7
 IUUpdateText@Base 0.9.7
 MAIN_CONTROL_TAB@Base 0.9.7
 MOTION_TAB@Base 0.9.7
 OPTIONS_TAB@Base 0.9.7
 SITE_TAB@Base 0.9.7
 _Z9timerfuncPv@Base 0.9.7
 _ZN4INDI10BaseDevice10addMessageEPKc@Base 0.9.7
 _ZN4INDI10BaseDevice11getPropertyEPKc9INDI_TYPE@Base 0.9.7
 _ZN4INDI10BaseDevice11isConnectedEv@Base 0.9.7
 _ZN4INDI10BaseDevice11lastMessageEv@Base 0.9.7
 _ZN4INDI10BaseDevice12checkMessageEP8_xml_ele@Base 0.9.7
 _ZN4INDI10BaseDevice12messageQueueEi@Base 0.9.7
 _ZN4INDI10BaseDevice13buildSkeletonEPKc@Base 0.9.7
 _ZN4INDI10BaseDevice13getDeviceNameEv@Base 0.9.7
 _ZN4INDI10BaseDevice13getDriverExecEv@Base 0.9.7
 _ZN4INDI10BaseDevice13getDriverNameEv@Base 0.9.7
 _ZN4INDI10BaseDevice13setDeviceNameEPKc@Base 0.9.7
 _ZN4INDI10BaseDevice14getRawPropertyEPKc9INDI_TYPE@Base 0.9.7
 _ZN4INDI10BaseDevice14removePropertyEPKcPc@Base 0.9.7
 _ZN4INDI10BaseDevice16registerPropertyEPv9INDI_TYPE@Base 0.9.7
 _ZN4INDI10BaseDevice7getBLOBEPKc@Base 0.9.7
 _ZN4INDI10BaseDevice7getTextEPKc@Base 0.9.7
 _ZN4INDI10BaseDevice7setBLOBEP20_IBLOBVectorPropertyP8_xml_elePc@Base 0.9.7
 _ZN4INDI10BaseDevice8getLightEPKc@Base 0.9.7
 _ZN4INDI10BaseDevice8setValueEP8_xml_elePc@Base 0.9.7
 _ZN4INDI10BaseDevice9buildPropEP8_xml_elePc@Base 0.9.7
 _ZN4INDI10BaseDevice9doMessageEP8_xml_ele@Base 0.9.7
 _ZN4INDI10BaseDevice9getNumberEPKc@Base 0.9.7
 _ZN4INDI10BaseDevice9getSwitchEPKc@Base 0.9.7
 _ZN4INDI10BaseDeviceC1Ev@Base 0.9.7
 _ZN4INDI10BaseDeviceC2Ev@Base 0.9.7
 _ZN4INDI10BaseDeviceD1Ev@Base 0.9.7
 _ZN4INDI10BaseDeviceD2Ev@Base 0.9.7
 _ZN4INDI10Controller11ISNewSwitchEPKcS2_P7ISStatePPci@Base 0.9.7
 _ZN4INDI10Controller11buttonEventEPKci@Base 0.9.7
 _ZN4INDI10Controller13ISSnoopDeviceEP8_xml_ele@Base 0.9.7
 _ZN4INDI10Controller13joystickEventEPKcdd@Base 0.9.7
 _ZN4INDI10Controller13mapControllerEPKcS2_NS0_14ControllerTypeES2_@Base 0.9.7
 _ZN4INDI10Controller14enableJoystickEv@Base 0.9.7
 _ZN4INDI10Controller14initPropertiesEv@Base 0.9.7
 _ZN4INDI10Controller15ISGetPropertiesEPKc@Base 0.9.7
 _ZN4INDI10Controller15disableJoystickEv@Base 0.9.7
 _ZN4INDI10Controller15saveConfigItemsEP8_IO_FILE@Base 0.9.7
 _ZN4INDI10Controller15setAxisCallbackENSt3tr18functionIFvPKcdEEE@Base 0.9.7
 _ZN4INDI10Controller16updatePropertiesEv@Base 0.9.7
 _ZN4INDI10Controller17getControllerTypeEPKc@Base 0.9.7
 _ZN4INDI10Controller17setButtonCallbackENSt3tr18functionIFvPKc7ISStateEEE@Base 0.9.7
 _ZN4INDI10Controller19setJoystickCallbackENSt3tr18functionIFvPKcddEEE@Base 0.9.7
 _ZN4INDI10Controller20getControllerSettingEPKc@Base 0.9.7
 _ZN4INDI10Controller9ISNewTextEPKcS2_PPcS4_i@Base 0.9.7
 _ZN4INDI10Controller9axisEventEPKci@Base 0.9.7
 _ZN4INDI10ControllerC1EPNS_13DefaultDeviceE@Base 0.9.7
 _ZN4INDI10ControllerC2EPNS_13DefaultDeviceE@Base 0.9.7
 _ZN4INDI10ControllerD0Ev@Base 0.9.7
 _ZN4INDI10ControllerD1Ev@Base 0.9.7
 _ZN4INDI10ControllerD2Ev@Base 0.9.7
 _ZN4INDI11FilterWheel11ISNewNumberEPKcS2_PdPPci@Base 0.9.7
 _ZN4INDI11FilterWheel11ISNewSwitchEPKcS2_P7ISStatePPci@Base 0.9.7
 _ZN4INDI11FilterWheel11QueryFilterEv@Base 0.9.7
 _ZN4INDI11FilterWheel12SelectFilterEi@Base 0.9.7
 _ZN4INDI11FilterWheel13ISSnoopDeviceEP8_xml_ele@Base 0.9.7
 _ZN4INDI11FilterWheel14GetFilterNamesEPKc@Base 0.9.7
 _ZN4INDI11FilterWheel14SetFilterNamesEv@Base 0.9.7
 _ZN4INDI11FilterWheel14initPropertiesEv@Base 0.9.7
 _ZN4INDI11FilterWheel15ISGetPropertiesEPKc@Base 0.9.7
 _ZN4INDI11FilterWheel15saveConfigItemsEP8_IO_FILE@Base 0.9.7
 _ZN4INDI11FilterWheel16updatePropertiesEv@Base 0.9.7
 _ZN4INDI11FilterWheel9ISNewTextEPKcS2_PPcS4_i@Base 0.9.7
 _ZN4INDI11FilterWheelC1Ev@Base 0.9.7
 _ZN4INDI11FilterWheelC2Ev@Base 0.9.7
 _ZN4INDI11FilterWheelD0Ev@Base 0.9.7
 _ZN4INDI11FilterWheelD1Ev@Base 0.9.7
 _ZN4INDI11FilterWheelD2Ev@Base 0.9.7
 _ZN4INDI13DefaultDevice10defineBLOBEP20_IBLOBVectorProperty@Base 0.9.7
 _ZN4INDI13DefaultDevice10defineTextEP20_ITextVectorProperty@Base 0.9.7
 _ZN4INDI13DefaultDevice10loadConfigEv@Base 0.9.7
 _ZN4INDI13DefaultDevice10saveConfigEv@Base 0.9.7
 _ZN4INDI13DefaultDevice11ISNewNumberEPKcS2_PdPPci@Base 0.9.7
 _ZN4INDI13DefaultDevice11ISNewSwitchEPKcS2_P7ISStatePPci@Base 0.9.7
 _ZN4INDI13DefaultDevice11RemoveTimerEi@Base 0.9.7
 _ZN4INDI13DefaultDevice11defineLightEP21_ILightVectorProperty@Base 0.9.7
 _ZN4INDI13DefaultDevice12defineNumberEP22_INumberVectorProperty@Base 0.9.7
 _ZN4INDI13DefaultDevice12defineSwitchEP22_ISwitchVectorProperty@Base 0.9.7
 _ZN4INDI13DefaultDevice12isSimulationEv@Base 0.9.7
 _ZN4INDI13DefaultDevice12setConnectedEb7IPStatePKc@Base 0.9.7
 _ZN4INDI13DefaultDevice13ISSnoopDeviceEP8_xml_ele@Base 0.9.7
 _ZN4INDI13DefaultDevice13getDriverNameEv@Base 0.9.7
 _ZN4INDI13DefaultDevice13setSimulationEb@Base 0.9.7
 _ZN4INDI13DefaultDevice14addAuxControlsEv@Base 0.9.7
 _ZN4INDI13DefaultDevice14debugTriggeredEb@Base 0.9.7
 _ZN4INDI13DefaultDevice14deletePropertyEPKc@Base 0.9.7
 _ZN4INDI13DefaultDevice14initPropertiesEv@Base 0.9.7
 _ZN4INDI13DefaultDevice15ISGetPropertiesEPKc@Base 0.9.7
 _ZN4INDI13DefaultDevice15addDebugControlEv@Base 0.9.7
 _ZN4INDI13DefaultDevice15resetPropertiesEv@Base 0.9.7
 _ZN4INDI13DefaultDevice15saveConfigItemsEP8_IO_FILE@Base 0.9.7
 _ZN4INDI13DefaultDevice16updatePropertiesEv@Base 0.9.7
 _ZN4INDI13DefaultDevice17loadDefaultConfigEv@Base 0.9.7
 _ZN4INDI13DefaultDevice19simulationTriggeredEb@Base 0.9.7
 _ZN4INDI13DefaultDevice20addSimulationControlEv@Base 0.9.7
 _ZN4INDI13DefaultDevice23addConfigurationControlEv@Base 0.9.7
 _ZN4INDI13DefaultDevice7isDebugEv@Base 0.9.7
 _ZN4INDI13DefaultDevice8SetTimerEi@Base 0.9.7
 _ZN4INDI13DefaultDevice8TimerHitEv@Base 0.9.7
 _ZN4INDI13DefaultDevice8setDebugEb@Base 0.9.7
 _ZN4INDI13DefaultDevice9ISNewBLOBEPKcS2_PiS3_PPcS5_S5_i@Base 0.9.7
 _ZN4INDI13DefaultDevice9ISNewTextEPKcS2_PPcS4_i@Base 0.9.7
 _ZN4INDI13DefaultDeviceC1Ev@Base 0.9.7
 _ZN4INDI13DefaultDeviceC2Ev@Base 0.9.7
 _ZN4INDI13DefaultDeviceD0Ev@Base 0.9.7
 _ZN4INDI13DefaultDeviceD1Ev@Base 0.9.7
 _ZN4INDI13DefaultDeviceD2Ev@Base 0.9.7
 _ZN4INDI15FilterInterface16SelectFilterDoneEi@Base 0.9.7
 _ZN4INDI15FilterInterface17processFilterNameEPKcPPcS4_i@Base 0.9.7
 _ZN4INDI15FilterInterface17processFilterSlotEPKcPdPPc@Base 0.9.7
 _ZN4INDI15FilterInterface20initFilterPropertiesEPKcS2_@Base 0.9.7
 _ZN4INDI15FilterInterfaceC1Ev@Base 0.9.7
 _ZN4INDI15FilterInterfaceC2Ev@Base 0.9.7
 _ZN4INDI15FilterInterfaceD1Ev@Base 0.9.7
 _ZN4INDI15FilterInterfaceD2Ev@Base 0.9.7
 _ZN4INDI15GuiderInterface20initGuiderPropertiesEPKcS2_@Base 0.9.7
 _ZN4INDI15GuiderInterface23processGuiderPropertiesEPKcPdPPci@Base 0.9.7
 _ZN4INDI15GuiderInterfaceC1Ev@Base 0.9.7
 _ZN4INDI15GuiderInterfaceC2Ev@Base 0.9.7
 _ZN4INDI15GuiderInterfaceD1Ev@Base 0.9.7
 _ZN4INDI15GuiderInterfaceD2Ev@Base 0.9.7
 _ZN4INDI3CCD10GuideNorthEf@Base 0.9.7
 _ZN4INDI3CCD10GuideSouthEf@Base 0.9.7
 _ZN4INDI3CCD11ISNewNumberEPKcS2_PdPPci@Base 0.9.7
 _ZN4INDI3CCD11ISNewSwitchEPKcS2_P7ISStatePPci@Base 0.9.7
 _ZN4INDI3CCD12SetCCDParamsEiiiff@Base 0.9.7
 _ZN4INDI3CCD12updateCCDBinEii@Base 0.9.7
 _ZN4INDI3CCD13AbortExposureEv@Base 0.9.7
 _ZN4INDI3CCD13ISSnoopDeviceEP8_xml_ele@Base 0.9.7
 _ZN4INDI3CCD13StartExposureEf@Base 0.9.7
 _ZN4INDI3CCD14initPropertiesEv@Base 0.9.7
 _ZN4INDI3CCD14updateCCDFrameEiiii@Base 0.9.7
 _ZN4INDI3CCD14updateGuideBinEii@Base 0.9.7
 _ZN4INDI3CCD15ISGetPropertiesEPKc@Base 0.9.7
 _ZN4INDI3CCD15addFITSKeywordsEP8fitsfileP7CCDChip@Base 0.9.7
 _ZN4INDI3CCD15saveConfigItemsEP8_IO_FILE@Base 0.9.7
 _ZN4INDI3CCD16ExposureCompleteEP7CCDChip@Base 0.9.7
 _ZN4INDI3CCD16updateGuideFrameEiiii@Base 0.9.7
 _ZN4INDI3CCD16updatePropertiesEv@Base 0.9.7
 _ZN4INDI3CCD17fits_update_key_sEP8fitsfileiSsPvSsPi@Base 0.9.7
 _ZN4INDI3CCD18AbortGuideExposureEv@Base 0.9.7
 _ZN4INDI3CCD18SetGuideHeadParamsEiiiff@Base 0.9.7
 _ZN4INDI3CCD18StartGuideExposureEf@Base 0.9.7
 _ZN4INDI3CCD18updateCCDFrameTypeEN7CCDChip9CCD_FRAMEE@Base 0.9.7
 _ZN4INDI3CCD20activeDevicesUpdatedEv@Base 0.9.7
 _ZN4INDI3CCD20updateGuideFrameTypeEN7CCDChip9CCD_FRAMEE@Base 0.9.7
 _ZN4INDI3CCD9GuideEastEf@Base 0.9.7
 _ZN4INDI3CCD9GuideWestEf@Base 0.9.7
 _ZN4INDI3CCD9ISNewTextEPKcS2_PPcS4_i@Base 0.9.7
 _ZN4INDI3CCD9getMinMaxEPdS1_P7CCDChip@Base 0.9.7
 _ZN4INDI3CCDC1Ev@Base 0.9.7
 _ZN4INDI3CCDC2Ev@Base 0.9.7
 _ZN4INDI3CCDD0Ev@Base 0.9.7
 _ZN4INDI3CCDD1Ev@Base 0.9.7
 _ZN4INDI3CCDD2Ev@Base 0.9.7
 _ZN4INDI6Logger11DebugLevelSE@Base 0.9.7
 _ZN4INDI6Logger11ISNewSwitchEPKcS2_P7ISStatePPci@Base 0.9.7
 _ZN4INDI6Logger11customLevelE@Base 0.9.7
 _ZN4INDI6Logger11getInstanceEv@Base 0.9.7
 _ZN4INDI6Logger12DebugLevelSPE@Base 0.9.7
 _ZN4INDI6Logger13LoggingLevelSE@Base 0.9.7
 _ZN4INDI6Logger13addDebugLevelEPKcS2_@Base 0.9.7
 _ZN4INDI6Logger14ConfigurationSE@Base 0.9.7
 _ZN4INDI6Logger14LoggingLevelSPE@Base 0.9.7
 _ZN4INDI6Logger14configuration_E@Base 0.9.7
 _ZN4INDI6Logger15ConfigurationSPE@Base 0.9.7
 _ZN4INDI6Logger15DebugLevelSInitE@Base 0.9.7
 _ZN4INDI6Logger16updatePropertiesEbPNS_13DefaultDeviceE@Base 0.9.7
 _ZN4INDI6Logger17LoggingLevelSInitE@Base 0.9.7
 _ZN4INDI6Logger19fileVerbosityLevel_E@Base 0.9.7
 _ZN4INDI6Logger20rememberscreenlevel_E@Base 0.9.7
 _ZN4INDI6Logger21screenVerbosityLevel_E@Base 0.9.7
 _ZN4INDI6Logger2m_E@Base 0.9.7
 _ZN4INDI6Logger4TagsE@Base 0.9.7
 _ZN4INDI6Logger4rankEj@Base 0.9.7
 _ZN4INDI6Logger5printEPKcjRKSsiS2_z@Base 0.9.7
 _ZN4INDI6Logger8logFile_E@Base 0.9.7
 _ZN4INDI6Logger9configureERKSsNS0_11loggerConf_Eii@Base 0.9.7
 _ZN4INDI6LoggerC1Ev@Base 0.9.7
 _ZN4INDI6LoggerC2Ev@Base 0.9.7
 _ZN4INDI6LoggerD1Ev@Base 0.9.7
 _ZN4INDI6LoggerD2Ev@Base 0.9.7
 _ZN4INDI7Focuser11ISNewNumberEPKcS2_PdPPci@Base 0.9.7
 _ZN4INDI7Focuser11ISNewSwitchEPKcS2_P7ISStatePPci@Base 0.9.7
 _ZN4INDI7Focuser13ISSnoopDeviceEP8_xml_ele@Base 0.9.7
 _ZN4INDI7Focuser14initPropertiesEv@Base 0.9.7
 _ZN4INDI7Focuser15ISGetPropertiesEPKc@Base 0.9.7
 _ZN4INDI7Focuser16updatePropertiesEv@Base 0.9.7
 _ZN4INDI7Focuser4MoveENS0_14FocusDirectionEii@Base 0.9.7
 _ZN4INDI7Focuser7MoveAbsEi@Base 0.9.7
 _ZN4INDI7Focuser7MoveRelENS0_14FocusDirectionEj@Base 0.9.7
 _ZN4INDI7Focuser9ISNewTextEPKcS2_PPcS4_i@Base 0.9.7
 _ZN4INDI7FocuserC1Ev@Base 0.9.7
 _ZN4INDI7FocuserC2Ev@Base 0.9.7
 _ZN4INDI7FocuserD0Ev@Base 0.9.7
 _ZN4INDI7FocuserD1Ev@Base 0.9.7
 _ZN4INDI7FocuserD2Ev@Base 0.9.7
 _ZN4INDI8Property10setDynamicEb@Base 0.9.7
 _ZN4INDI8Property11setPropertyEPv@Base 0.9.7
 _ZN4INDI8Property12getGroupNameEv@Base 0.9.7
 _ZN4INDI8Property13getDeviceNameEv@Base 0.9.7
 _ZN4INDI8Property13getPermissionEv@Base 0.9.7
 _ZN4INDI8Property13setBaseDeviceEPNS_10BaseDeviceE@Base 0.9.7
 _ZN4INDI8Property13setRegisteredEb@Base 0.9.7
 _ZN4INDI8Property7getBLOBEv@Base 0.9.7
 _ZN4INDI8Property7getNameEv@Base 0.9.7
 _ZN4INDI8Property7getTextEv@Base 0.9.7
 _ZN4INDI8Property7setTypeE9INDI_TYPE@Base 0.9.7
 _ZN4INDI8Property8getLabelEv@Base 0.9.7
 _ZN4INDI8Property8getLightEv@Base 0.9.7
 _ZN4INDI8Property8getStateEv@Base 0.9.7
 _ZN4INDI8Property9getNumberEv@Base 0.9.7
 _ZN4INDI8Property9getSwitchEv@Base 0.9.7
 _ZN4INDI8PropertyC1Ev@Base 0.9.7
 _ZN4INDI8PropertyC2Ev@Base 0.9.7
 _ZN4INDI8PropertyD1Ev@Base 0.9.7
 _ZN4INDI8PropertyD2Ev@Base 0.9.7
 _ZN4INDI9Telescope10DisconnectEv@Base 0.9.7
 _ZN4INDI9Telescope10updateTimeEP7ln_dated@Base 0.9.7
 _ZN4INDI9Telescope11ISNewNumberEPKcS2_PdPPci@Base 0.9.7
 _ZN4INDI9Telescope11ISNewSwitchEPKcS2_P7ISStatePPci@Base 0.9.7
 _ZN4INDI9Telescope13ISSnoopDeviceEP8_xml_ele@Base 0.9.7
 _ZN4INDI9Telescope14initPropertiesEv@Base 0.9.7
 _ZN4INDI9Telescope14updateLocationEddd@Base 0.9.7
 _ZN4INDI9Telescope15ISGetPropertiesEPKc@Base 0.9.7
 _ZN4INDI9Telescope15saveConfigItemsEP8_IO_FILE@Base 0.9.7
 _ZN4INDI9Telescope16updatePropertiesEv@Base 0.9.7
 _ZN4INDI9Telescope4ParkEv@Base 0.9.7
 _ZN4INDI9Telescope4SyncEdd@Base 0.9.7
 _ZN4INDI9Telescope6MoveNSENS0_17TelescopeMotionNSE@Base 0.9.7
 _ZN4INDI9Telescope6MoveWEENS0_17TelescopeMotionWEE@Base 0.9.7
 _ZN4INDI9Telescope7ConnectEPKc@Base 0.9.7
 _ZN4INDI9Telescope7ConnectEv@Base 0.9.7
 _ZN4INDI9Telescope7canParkEv@Base 0.9.7
 _ZN4INDI9Telescope7canSyncEv@Base 0.9.7
 _ZN4INDI9Telescope8NewRaDecEdd@Base 0.9.7
 _ZN4INDI9Telescope8TimerHitEv@Base 0.9.7
 _ZN4INDI9Telescope9ISNewTextEPKcS2_PPcS4_i@Base 0.9.7
 _ZN4INDI9TelescopeC1Ev@Base 0.9.7
 _ZN4INDI9TelescopeC2Ev@Base 0.9.7
 _ZN4INDI9TelescopeD0Ev@Base 0.9.7
 _ZN4INDI9TelescopeD1Ev@Base 0.9.7
 _ZN4INDI9TelescopeD2Ev@Base 0.9.7
 _ZN4INDI9USBDevice10FindDeviceEiii@Base 0.9.7
 _ZN4INDI9USBDevice13FindEndpointsEv@Base 0.9.7
 _ZN4INDI9USBDevice13ReadInterruptEPcii@Base 0.9.7
 _ZN4INDI9USBDevice14ControlMessageEhhjjPch@Base 0.9.7
 _ZN4INDI9USBDevice14WriteInterruptEPcii@Base 0.9.7
 _ZN4INDI9USBDevice4OpenEv@Base 0.9.7
 _ZN4INDI9USBDevice8ReadBulkEPcii@Base 0.9.7
 _ZN4INDI9USBDevice9WriteBulkEPcii@Base 0.9.7
 _ZN4INDI9USBDeviceC1Ev@Base 0.9.7
 _ZN4INDI9USBDeviceC2Ev@Base 0.9.7
 _ZN4INDI9USBDeviceD0Ev@Base 0.9.7
 _ZN4INDI9USBDeviceD1Ev@Base 0.9.7
 _ZN4INDI9USBDeviceD2Ev@Base 0.9.7
 _ZN7CCDChip12setFrameTypeENS_9CCD_FRAMEE@Base 0.9.7
 _ZN7CCDChip12setPixelSizeEff@Base 0.9.7
 _ZN7CCDChip13setInterlacedEb@Base 0.9.7
 _ZN7CCDChip13setResolutoinEii@Base 0.9.7
 _ZN7CCDChip15setExposureLeftEd@Base 0.9.7
 _ZN7CCDChip16getFrameTypeNameENS_9CCD_FRAMEE@Base 0.9.7
 _ZN7CCDChip17setExposureFailedEv@Base 0.9.7
 _ZN7CCDChip18setFrameBufferSizeEi@Base 0.9.7
 _ZN7CCDChip19setExposureDurationEd@Base 0.9.7
 _ZN7CCDChip20getExposureStartTimeEv@Base 0.9.7
 _ZN7CCDChip6setBPPEi@Base 0.9.7
 _ZN7CCDChip6setBinEii@Base 0.9.7
 _ZN7CCDChip8setFrameEiiii@Base 0.9.7
 _ZN7CCDChipC1Ev@Base 0.9.7
 _ZN7CCDChipC2Ev@Base 0.9.7
 _ZN7CCDChipD1Ev@Base 0.9.7
 _ZN7CCDChipD2Ev@Base 0.9.7
 (optional=templinst)_ZNSs12_S_constructIPcEES0_T_S1_RKSaIcESt20forward_iterator_tag@Base 0.9.7
 (optional=templinst)_ZNSt15basic_stringbufIcSt11char_traitsIcESaIcEED0Ev@Base 0.9.7
 (optional=templinst)_ZNSt15basic_stringbufIcSt11char_traitsIcESaIcEED1Ev@Base 0.9.7
 (optional=templinst)_ZNSt15basic_stringbufIcSt11char_traitsIcESaIcEED2Ev@Base 0.9.7
 (optional=templinst)_ZNSt3tr114_Function_base13_Base_managerIPFvPKcddEE10_M_managerERNS_9_Any_dataERKS7_NS_18_Manager_operationE@Base 0.9.7
 (optional=templinst)_ZNSt3tr114_Function_base13_Base_managerIPFvPKciEE10_M_managerERNS_9_Any_dataERKS7_NS_18_Manager_operationE@Base 0.9.7
 (optional=templinst)_ZNSt3tr117_Function_handlerIFvPKc7ISStateEPFvS2_iEE9_M_invokeERKNS_9_Any_dataES2_S3_@Base 0.9.7
 (optional=templinst)_ZNSt3tr117_Function_handlerIFvPKcdEPFvS2_iEE9_M_invokeERKNS_9_Any_dataES2_d@Base 0.9.7
 (optional=templinst)_ZNSt3tr117_Function_handlerIFvPKcddEPS3_E9_M_invokeERKNS_9_Any_dataES2_dd@Base 0.9.7
 _ZNSt3tr117bad_function_callD0Ev@Base 0.9.7
 _ZNSt3tr117bad_function_callD1Ev@Base 0.9.7
 _ZNSt3tr117bad_function_callD2Ev@Base 0.9.7
 (optional=templinst)_ZNSt6vectorIPKcSaIS1_EE13_M_insert_auxEN9__gnu_cxx17__normal_iteratorIPS1_S3_EERKS1_@Base 0.9.7
 (optional=templinst)_ZNSt6vectorIPN4INDI8PropertyESaIS2_EE13_M_insert_auxEN9__gnu_cxx17__normal_iteratorIPS2_S4_EERKS2_@Base 0.9.7
 (optional=templinst)_ZNSt6vectorIPN4INDI8PropertyESaIS2_EE5eraseEN9__gnu_cxx17__normal_iteratorIPS2_S4_EE@Base 0.9.7
 _ZTIFvPKcddE@Base 0.9.7
 _ZTIFvPKciE@Base 0.9.7
 _ZTIN4INDI10BaseDeviceE@Base 0.9.7
 _ZTIN4INDI10ControllerE@Base 0.9.7
 _ZTIN4INDI11FilterWheelE@Base 0.9.7
 _ZTIN4INDI13DefaultDeviceE@Base 0.9.7
 _ZTIN4INDI15FilterInterfaceE@Base 0.9.7
 _ZTIN4INDI15GuiderInterfaceE@Base 0.9.7
 _ZTIN4INDI3CCDE@Base 0.9.7
 _ZTIN4INDI7FocuserE@Base 0.9.7
 _ZTIN4INDI9TelescopeE@Base 0.9.7
 _ZTIN4INDI9USBDeviceE@Base 0.9.7
 _ZTINSt3tr117bad_function_callE@Base 0.9.7
 _ZTIPFvPKcddE@Base 0.9.7
 _ZTIPFvPKciE@Base 0.9.7
 _ZTSFvPKcddE@Base 0.9.7
 _ZTSFvPKciE@Base 0.9.7
 _ZTSN4INDI10BaseDeviceE@Base 0.9.7
 _ZTSN4INDI10ControllerE@Base 0.9.7
 _ZTSN4INDI11FilterWheelE@Base 0.9.7
 _ZTSN4INDI13DefaultDeviceE@Base 0.9.7
 _ZTSN4INDI15FilterInterfaceE@Base 0.9.7
 _ZTSN4INDI15GuiderInterfaceE@Base 0.9.7
 _ZTSN4INDI3CCDE@Base 0.9.7
 _ZTSN4INDI7FocuserE@Base 0.9.7
 _ZTSN4INDI9TelescopeE@Base 0.9.7
 _ZTSN4INDI9USBDeviceE@Base 0.9.7
 _ZTSNSt3tr117bad_function_callE@Base 0.9.7
 _ZTSPFvPKcddE@Base 0.9.7
 _ZTSPFvPKciE@Base 0.9.7
 _ZTVN4INDI10ControllerE@Base 0.9.7
 _ZTVN4INDI11FilterWheelE@Base 0.9.7
 _ZTVN4INDI13DefaultDeviceE@Base 0.9.7
 _ZTVN4INDI15FilterInterfaceE@Base 0.9.7
 _ZTVN4INDI15GuiderInterfaceE@Base 0.9.7
 _ZTVN4INDI3CCDE@Base 0.9.7
 _ZTVN4INDI7FocuserE@Base 0.9.7
 _ZTVN4INDI9TelescopeE@Base 0.9.7
 _ZTVN4INDI9USBDeviceE@Base 0.9.7
 _ZTVNSt3tr117bad_function_callE@Base 0.9.7
 addCallback@Base 0.9.7
 addTimer@Base 0.9.7
 addWorkProc@Base 0.9.7
 addXMLAtt@Base 0.9.7
 addXMLEle@Base 0.9.7
 appXMLEle@Base 0.9.7
 clientMsgCB@Base 0.9.7
 clixml@Base 0.9.7
 cloneXMLEle@Base 0.9.7
 crackDN@Base 0.9.7
 crackIPState@Base 0.9.7
 crackIPerm@Base 0.9.7
 crackISRule@Base 0.9.7
 crackISState@Base 0.9.7
 deferLoop0@Base 0.9.7
 deferLoop@Base 0.9.7
 delLilXML@Base 0.9.7
 delXMLEle@Base 0.9.7
 dispatch@Base 0.9.7
 editXMLAtt@Base 0.9.7
 editXMLEle@Base 0.9.7
 entityXML@Base 0.9.7
 eventLoop@Base 0.9.7
 extractISOTime@Base 0.9.7
 f_scansexa@Base 0.9.7
 findXMLAtt@Base 0.9.7
 findXMLAttValu@Base 0.9.7
 findXMLEle@Base 0.9.7
 from64tobits@Base 0.9.7
 fs_sexa@Base 0.9.7
 getSexComponents@Base 0.9.7
 isPropDefined@Base 0.9.7
 lilxmlMalloc@Base 0.9.7
 main@Base 0.9.7
 me@Base 0.9.7
 nXMLAtt@Base 0.9.7
 nXMLEle@Base 0.9.7
 nameXMLAtt@Base 0.9.7
 newLilXML@Base 0.9.7
 nextXMLAtt@Base 0.9.7
 nextXMLEle@Base 0.9.7
 (c++)"non-virtual thunk to INDI::CCD::GuideEast(float)@Base" 0.9.7
 (c++)"non-virtual thunk to INDI::CCD::GuideNorth(float)@Base" 0.9.7
 (c++)"non-virtual thunk to INDI::CCD::GuideSouth(float)@Base" 0.9.7
 (c++)"non-virtual thunk to INDI::CCD::GuideWest(float)@Base" 0.9.7
 (c++)"non-virtual thunk to INDI::FilterWheel::GetFilterNames(char const*)@Base" 0.9.7
 (c++)"non-virtual thunk to INDI::FilterWheel::QueryFilter()@Base" 0.9.7
 (c++)"non-virtual thunk to INDI::FilterWheel::SelectFilter(int)@Base" 0.9.7
 (c++)"non-virtual thunk to INDI::FilterWheel::SetFilterNames()@Base" 0.9.7
 nroCheck@Base 0.9.7
 numberFormat@Base 0.9.7
 parentXMLAtt@Base 0.9.7
 parentXMLEle@Base 0.9.7
 parseXML@Base 0.9.7
 pcdataXMLEle@Base 0.9.7
 pcdatalenXMLEle@Base 0.9.7
 permStr@Base 0.9.7
 prXMLEle@Base 0.9.7
 pstateStr@Base 0.9.7
 readXMLEle@Base 0.9.7
 readXMLFile@Base 0.9.7
 rmCallback@Base 0.9.7
 rmTimer@Base 0.9.7
 rmWorkProc@Base 0.9.7
 rmXMLAtt@Base 0.9.7
 roCheck@Base 0.9.7
 ruleStr@Base 0.9.7
 sprXMLEle@Base 0.9.7
 sprlXMLEle@Base 0.9.7
 sstateStr@Base 0.9.7
 tagXMLEle@Base 0.9.7
 timestamp@Base 0.9.7
 to64frombits@Base 0.9.7
 tty_connect@Base 0.9.7
 tty_disconnect@Base 0.9.7
 tty_error_msg@Base 0.9.7
 tty_read@Base 0.9.7
 tty_read_section@Base 0.9.7
 tty_timeout@Base 0.9.7
 tty_write@Base 0.9.7
 tty_write_string@Base 0.9.7
 valuXMLAtt@Base 0.9.7
 verbose@Base 0.9.7
 xmlv1@Base 0.9.7
