# SymbolsHelper-Confirmed: 1.0.0 amd64
libindidriver.so.1 libindidriver1 #MINVER#
 ALIGNMENT_TAB@Base 1.0.0
 COMMUNICATION_TAB@Base 1.0.0
 DATETIME_TAB@Base 1.0.0
 FILTER_TAB@Base 1.0.0
 FOCUS_TAB@Base 1.0.0
 GUIDE_CONTROL_TAB@Base 1.0.0
 GUIDE_HEAD_TAB@Base 1.0.0
 GUIDE_TAB@Base 1.0.0
 IDDefBLOB@Base 1.0.0
 IDDefLight@Base 1.0.0
 IDDefNumber@Base 1.0.0
 IDDefSwitch@Base 1.0.0
 IDDefText@Base 1.0.0
 IDDelete@Base 1.0.0
 IDLog@Base 1.0.0
 IDMessage@Base 1.0.0
 IDSetBLOB@Base 1.0.0
 IDSetLight@Base 1.0.0
 IDSetNumber@Base 1.0.0
 IDSetSwitch@Base 1.0.0
 IDSetText@Base 1.0.0
 IDSnoopBLOBs@Base 1.0.0
 IDSnoopDevice@Base 1.0.0
 IEAddCallback@Base 1.0.0
 IEAddTimer@Base 1.0.0
 IEAddWorkProc@Base 1.0.0
 IEDeferLoop0@Base 1.0.0
 IEDeferLoop@Base 1.0.0
 IERmCallback@Base 1.0.0
 IERmTimer@Base 1.0.0
 IERmWorkProc@Base 1.0.0
 IMAGE_INFO_TAB@Base 1.0.0
 IMAGE_SETTINGS_TAB@Base 1.0.0
 IUFillBLOB@Base 1.0.0
 IUFillBLOBVector@Base 1.0.0
 IUFillLight@Base 1.0.0
 IUFillLightVector@Base 1.0.0
 IUFillNumber@Base 1.0.0
 IUFillNumberVector@Base 1.0.0
 IUFillSwitch@Base 1.0.0
 IUFillSwitchVector@Base 1.0.0
 IUFillText@Base 1.0.0
 IUFillTextVector@Base 1.0.0
 IUFindBLOB@Base 1.0.0
 IUFindIndex@Base 1.0.0
 IUFindLight@Base 1.0.0
 IUFindNumber@Base 1.0.0
 IUFindOnSwitch@Base 1.0.0
 IUFindOnSwitchIndex@Base 1.0.0
 IUFindSwitch@Base 1.0.0
 IUFindText@Base 1.0.0
 IUGetConfigFP@Base 1.0.0
 IUReadConfig@Base 1.0.0
 IUResetSwitch@Base 1.0.0
 IUSaveBLOB@Base 1.0.0
 IUSaveConfigBLOB@Base 1.0.0
 IUSaveConfigNumber@Base 1.0.0
 IUSaveConfigSwitch@Base 1.0.0
 IUSaveConfigTag@Base 1.0.0
 IUSaveConfigText@Base 1.0.0
 IUSaveDefaultConfig@Base 1.0.0
 IUSaveText@Base 1.0.0
 IUSnoopBLOB@Base 1.0.0
 IUSnoopLight@Base 1.0.0
 IUSnoopNumber@Base 1.0.0
 IUSnoopSwitch@Base 1.0.0
 IUSnoopText@Base 1.0.0
 IUUpdateBLOB@Base 1.0.0
 IUUpdateMinMax@Base 1.0.0
 IUUpdateNumber@Base 1.0.0
 IUUpdateSwitch@Base 1.0.0
 IUUpdateText@Base 1.0.0
 InitLookupTable@Base 1.0.0
 MAIN_CONTROL_TAB@Base 1.0.0
 MOTION_TAB@Base 1.0.0
 OPTIONS_TAB@Base 1.0.0
 RAPIDGUIDE_TAB@Base 1.0.0
 RGB2YUV@Base 1.0.0
 SITE_TAB@Base 1.0.0
 _Z9timerfuncPv@Base 1.0.0
 _ZN11V4L2_Decode10getDecoderEv@Base 1.0.0
 _ZN11V4L2_Decode10setDecoderEP12V4L2_Decoder@Base 1.0.0
 _ZN11V4L2_Decode14getDecoderListEv@Base 1.0.0
 _ZN11V4L2_Decode17getDefaultDecoderEv@Base 1.0.0
 _ZN11V4L2_DecodeC1Ev@Base 1.0.0
 _ZN11V4L2_DecodeC2Ev@Base 1.0.0
 _ZN11V4L2_DecodeD1Ev@Base 1.0.0
 _ZN11V4L2_DecodeD2Ev@Base 1.0.0
 _ZN11V4L2_Record11getRecorderEv@Base 1.0.0
 _ZN11V4L2_Record11setRecorderEP13V4L2_Recorder@Base 1.0.0
 _ZN11V4L2_Record15getRecorderListEv@Base 1.0.0
 _ZN11V4L2_Record18getDefaultRecorderEv@Base 1.0.0
 _ZN11V4L2_RecordC1Ev@Base 1.0.0
 _ZN11V4L2_RecordC2Ev@Base 1.0.0
 _ZN11V4L2_RecordD1Ev@Base 1.0.0
 _ZN11V4L2_RecordD2Ev@Base 1.0.0
 _ZN12SER_Recorder10writeFrameEPh@Base 1.0.0
 _ZN12SER_Recorder12write_headerEP10ser_header@Base 1.0.0
 _ZN12SER_Recorder12write_int_leEPj@Base 1.0.0
 _ZN12SER_Recorder14setDefaultMonoEv@Base 1.0.0
 _ZN12SER_Recorder14setpixelformatEj@Base 1.0.0
 _ZN12SER_Recorder14writeFrameMonoEPh@Base 1.0.0
 _ZN12SER_Recorder15setDefaultColorEv@Base 1.0.0
 _ZN12SER_Recorder15writeFrameColorEPh@Base 1.0.0
 _ZN12SER_Recorder16is_little_endianEv@Base 1.0.0
 _ZN12SER_Recorder17write_long_int_leEPm@Base 1.0.0
 _ZN12SER_Recorder4initEv@Base 1.0.0
 _ZN12SER_Recorder4openEPKcPc@Base 1.0.0
 _ZN12SER_Recorder5closeEv@Base 1.0.0
 _ZN12SER_Recorder7setsizeEjj@Base 1.0.0
 _ZN12SER_RecorderC1Ev@Base 1.0.0
 _ZN12SER_RecorderC2Ev@Base 1.0.0
 _ZN12SER_RecorderD0Ev@Base 1.0.0
 _ZN12SER_RecorderD1Ev@Base 1.0.0
 _ZN12SER_RecorderD2Ev@Base 1.0.0
 _ZN12V4L2_Decoder7getNameEv@Base 1.0.0
 _ZN12V4L2_DecoderC1Ev@Base 1.0.0
 _ZN12V4L2_DecoderC2Ev@Base 1.0.0
 _ZN12V4L2_DecoderD0Ev@Base 1.0.0
 _ZN12V4L2_DecoderD1Ev@Base 1.0.0
 _ZN12V4L2_DecoderD2Ev@Base 1.0.0
 _ZN13V4L2_Recorder7getNameEv@Base 1.0.0
 _ZN13V4L2_RecorderC1Ev@Base 1.0.0
 _ZN13V4L2_RecorderC2Ev@Base 1.0.0
 _ZN13V4L2_RecorderD0Ev@Base 1.0.0
 _ZN13V4L2_RecorderD1Ev@Base 1.0.0
 _ZN13V4L2_RecorderD2Ev@Base 1.0.0
 _ZN20V4L2_Builtin_Decoder11usesoftcropEb@Base 1.0.0
 _ZN20V4L2_Builtin_Decoder12allocBuffersEv@Base 1.0.0
 _ZN20V4L2_Builtin_Decoder12getRGBBufferEv@Base 1.0.0
 _ZN20V4L2_Builtin_Decoder14getColorBufferEv@Base 1.0.0
 _ZN20V4L2_Builtin_Decoder17issupportedformatEj@Base 1.0.0
 _ZN20V4L2_Builtin_Decoder19getsupportedformatsEv@Base 1.0.0
 _ZN20V4L2_Builtin_Decoder22init_supported_formatsEv@Base 1.0.0
 _ZN20V4L2_Builtin_Decoder4getUEv@Base 1.0.0
 _ZN20V4L2_Builtin_Decoder4getVEv@Base 1.0.0
 _ZN20V4L2_Builtin_Decoder4getYEv@Base 1.0.0
 _ZN20V4L2_Builtin_Decoder4initEv@Base 1.0.0
 _ZN20V4L2_Builtin_Decoder6decodeEPhP11v4l2_buffer@Base 1.0.0
 _ZN20V4L2_Builtin_Decoder7setcropE9v4l2_crop@Base 1.0.0
 _ZN20V4L2_Builtin_Decoder9resetcropEv@Base 1.0.0
 _ZN20V4L2_Builtin_Decoder9setformatE11v4l2_format@Base 1.0.0
 _ZN20V4L2_Builtin_DecoderC1Ev@Base 1.0.0
 _ZN20V4L2_Builtin_DecoderC2Ev@Base 1.0.0
 _ZN20V4L2_Builtin_DecoderD0Ev@Base 1.0.0
 _ZN20V4L2_Builtin_DecoderD1Ev@Base 1.0.0
 _ZN20V4L2_Builtin_DecoderD2Ev@Base 1.0.0
 _ZN4INDI10BaseDevice10addMessageESs@Base 1.0.0
 _ZN4INDI10BaseDevice11getPropertyEPKc9INDI_TYPE@Base 1.0.0
 _ZN4INDI10BaseDevice11isConnectedEv@Base 1.0.0
 _ZN4INDI10BaseDevice11lastMessageEv@Base 1.0.0
 _ZN4INDI10BaseDevice12checkMessageEP8_xml_ele@Base 1.0.0
 _ZN4INDI10BaseDevice12messageQueueEi@Base 1.0.0
 _ZN4INDI10BaseDevice13buildSkeletonEPKc@Base 1.0.0
 _ZN4INDI10BaseDevice13getDeviceNameEv@Base 1.0.0
 _ZN4INDI10BaseDevice13getDriverExecEv@Base 1.0.0
 _ZN4INDI10BaseDevice13getDriverNameEv@Base 1.0.0
 _ZN4INDI10BaseDevice13setDeviceNameEPKc@Base 1.0.0
 _ZN4INDI10BaseDevice14getRawPropertyEPKc9INDI_TYPE@Base 1.0.0
 _ZN4INDI10BaseDevice14removePropertyEPKcPc@Base 1.0.0
 _ZN4INDI10BaseDevice16getDriverVersionEv@Base 1.0.0
 _ZN4INDI10BaseDevice16getPropertyStateEPKc@Base 1.0.0
 _ZN4INDI10BaseDevice16registerPropertyEPv9INDI_TYPE@Base 1.0.0
 _ZN4INDI10BaseDevice18getDriverInterfaceEv@Base 1.0.0
 _ZN4INDI10BaseDevice21getPropertyPermissionEPKc@Base 1.0.0
 _ZN4INDI10BaseDevice7getBLOBEPKc@Base 1.0.0
 _ZN4INDI10BaseDevice7getTextEPKc@Base 1.0.0
 _ZN4INDI10BaseDevice7setBLOBEP20_IBLOBVectorPropertyP8_xml_elePc@Base 1.0.0
 _ZN4INDI10BaseDevice8getLightEPKc@Base 1.0.0
 _ZN4INDI10BaseDevice8setValueEP8_xml_elePc@Base 1.0.0
 _ZN4INDI10BaseDevice9buildPropEP8_xml_elePc@Base 1.0.0
 _ZN4INDI10BaseDevice9doMessageEP8_xml_ele@Base 1.0.0
 _ZN4INDI10BaseDevice9getNumberEPKc@Base 1.0.0
 _ZN4INDI10BaseDevice9getSwitchEPKc@Base 1.0.0
 _ZN4INDI10BaseDeviceC1Ev@Base 1.0.0
 _ZN4INDI10BaseDeviceC2Ev@Base 1.0.0
 _ZN4INDI10BaseDeviceD1Ev@Base 1.0.0
 _ZN4INDI10BaseDeviceD2Ev@Base 1.0.0
 _ZN4INDI10Controller11ISNewSwitchEPKcS2_P7ISStatePPci@Base 1.0.0
 _ZN4INDI10Controller11buttonEventEPKciPv@Base 1.0.0
 _ZN4INDI10Controller13ISSnoopDeviceEP8_xml_ele@Base 1.0.0
 _ZN4INDI10Controller13joystickEventEPKcddPv@Base 1.0.0
 _ZN4INDI10Controller13mapControllerEPKcS2_NS0_14ControllerTypeES2_@Base 1.0.0
 _ZN4INDI10Controller14enableJoystickEv@Base 1.0.0
 _ZN4INDI10Controller14initPropertiesEv@Base 1.0.0
 _ZN4INDI10Controller15ISGetPropertiesEPKc@Base 1.0.0
 _ZN4INDI10Controller15disableJoystickEv@Base 1.0.0
 _ZN4INDI10Controller15saveConfigItemsEP8_IO_FILE@Base 1.0.0
 _ZN4INDI10Controller15setAxisCallbackESt8functionIFvPKcdPvEE@Base 1.0.0
 _ZN4INDI10Controller16updatePropertiesEv@Base 1.0.0
 _ZN4INDI10Controller17getControllerTypeEPKc@Base 1.0.0
 _ZN4INDI10Controller17setButtonCallbackESt8functionIFvPKc7ISStatePvEE@Base 1.0.0
 _ZN4INDI10Controller19setJoystickCallbackESt8functionIFvPKcddPvEE@Base 1.0.0
 _ZN4INDI10Controller20getControllerSettingEPKc@Base 1.0.0
 _ZN4INDI10Controller8clearMapEv@Base 1.0.0
 _ZN4INDI10Controller9ISNewTextEPKcS2_PPcS4_i@Base 1.0.0
 _ZN4INDI10Controller9axisEventEPKciPv@Base 1.0.0
 _ZN4INDI10ControllerC1EPNS_13DefaultDeviceE@Base 1.0.0
 _ZN4INDI10ControllerC2EPNS_13DefaultDeviceE@Base 1.0.0
 _ZN4INDI10ControllerD0Ev@Base 1.0.0
 _ZN4INDI10ControllerD1Ev@Base 1.0.0
 _ZN4INDI10ControllerD2Ev@Base 1.0.0
 _ZN4INDI11FilterWheel11ISNewNumberEPKcS2_PdPPci@Base 1.0.0
 _ZN4INDI11FilterWheel11ISNewSwitchEPKcS2_P7ISStatePPci@Base 1.0.0
 _ZN4INDI11FilterWheel11QueryFilterEv@Base 1.0.0
 _ZN4INDI11FilterWheel12SelectFilterEi@Base 1.0.0
 _ZN4INDI11FilterWheel12buttonHelperEPKc7ISStatePv@Base 1.0.0
 _ZN4INDI11FilterWheel13ISSnoopDeviceEP8_xml_ele@Base 1.0.0
 _ZN4INDI11FilterWheel13processButtonEPKc7ISState@Base 1.0.0
 _ZN4INDI11FilterWheel14GetFilterNamesEPKc@Base 1.0.0
 _ZN4INDI11FilterWheel14SetFilterNamesEv@Base 1.0.0
 _ZN4INDI11FilterWheel14initPropertiesEv@Base 1.0.0
 _ZN4INDI11FilterWheel14joystickHelperEPKcddPv@Base 1.0.0
 _ZN4INDI11FilterWheel15ISGetPropertiesEPKc@Base 1.0.0
 _ZN4INDI11FilterWheel15processJoystickEPKcdd@Base 1.0.0
 _ZN4INDI11FilterWheel15saveConfigItemsEP8_IO_FILE@Base 1.0.0
 _ZN4INDI11FilterWheel16updatePropertiesEv@Base 1.0.0
 _ZN4INDI11FilterWheel9ISNewTextEPKcS2_PPcS4_i@Base 1.0.0
 _ZN4INDI11FilterWheelC1Ev@Base 1.0.0
 _ZN4INDI11FilterWheelC2Ev@Base 1.0.0
 _ZN4INDI11FilterWheelD0Ev@Base 1.0.0
 _ZN4INDI11FilterWheelD1Ev@Base 1.0.0
 _ZN4INDI11FilterWheelD2Ev@Base 1.0.0
 _ZN4INDI13DefaultDevice10defineBLOBEP20_IBLOBVectorProperty@Base 1.0.0
 _ZN4INDI13DefaultDevice10defineTextEP20_ITextVectorProperty@Base 1.0.0
 _ZN4INDI13DefaultDevice10loadConfigEbPKc@Base 1.0.0
 _ZN4INDI13DefaultDevice10saveConfigEb@Base 1.0.0
 _ZN4INDI13DefaultDevice11ISNewNumberEPKcS2_PdPPci@Base 1.0.0
 _ZN4INDI13DefaultDevice11ISNewSwitchEPKcS2_P7ISStatePPci@Base 1.0.0
 _ZN4INDI13DefaultDevice11RemoveTimerEi@Base 1.0.0
 _ZN4INDI13DefaultDevice11defineLightEP21_ILightVectorProperty@Base 1.0.0
 _ZN4INDI13DefaultDevice12defineNumberEP22_INumberVectorProperty@Base 1.0.0
 _ZN4INDI13DefaultDevice12defineSwitchEP22_ISwitchVectorProperty@Base 1.0.0
 _ZN4INDI13DefaultDevice12isSimulationEv@Base 1.0.0
 _ZN4INDI13DefaultDevice12setConnectedEb7IPStatePKc@Base 1.0.0
 _ZN4INDI13DefaultDevice13ISSnoopDeviceEP8_xml_ele@Base 1.0.0
 _ZN4INDI13DefaultDevice13getDriverNameEv@Base 1.0.0
 _ZN4INDI13DefaultDevice13setSimulationEb@Base 1.0.0
 _ZN4INDI13DefaultDevice14addAuxControlsEv@Base 1.0.0
 _ZN4INDI13DefaultDevice14debugTriggeredEb@Base 1.0.0
 _ZN4INDI13DefaultDevice14deletePropertyEPKc@Base 1.0.0
 _ZN4INDI13DefaultDevice14initPropertiesEv@Base 1.0.0
 _ZN4INDI13DefaultDevice15ISGetPropertiesEPKc@Base 1.0.0
 _ZN4INDI13DefaultDevice15addDebugControlEv@Base 1.0.0
 _ZN4INDI13DefaultDevice15resetPropertiesEv@Base 1.0.0
 _ZN4INDI13DefaultDevice15saveConfigItemsEP8_IO_FILE@Base 1.0.0
 _ZN4INDI13DefaultDevice16updatePropertiesEv@Base 1.0.0
 _ZN4INDI13DefaultDevice17loadDefaultConfigEv@Base 1.0.0
 _ZN4INDI13DefaultDevice19simulationTriggeredEb@Base 1.0.0
 _ZN4INDI13DefaultDevice20addSimulationControlEv@Base 1.0.0
 _ZN4INDI13DefaultDevice22setInterfaceDescriptorEj@Base 1.0.0
 _ZN4INDI13DefaultDevice23addConfigurationControlEv@Base 1.0.0
 _ZN4INDI13DefaultDevice7isDebugEv@Base 1.0.0
 _ZN4INDI13DefaultDevice8SetTimerEi@Base 1.0.0
 _ZN4INDI13DefaultDevice8TimerHitEv@Base 1.0.0
 _ZN4INDI13DefaultDevice8setDebugEb@Base 1.0.0
 _ZN4INDI13DefaultDevice9ISNewBLOBEPKcS2_PiS3_PPcS5_S5_i@Base 1.0.0
 _ZN4INDI13DefaultDevice9ISNewTextEPKcS2_PPcS4_i@Base 1.0.0
 _ZN4INDI13DefaultDeviceC1Ev@Base 1.0.0
 _ZN4INDI13DefaultDeviceC2Ev@Base 1.0.0
 _ZN4INDI13DefaultDeviceD0Ev@Base 1.0.0
 _ZN4INDI13DefaultDeviceD1Ev@Base 1.0.0
 _ZN4INDI13DefaultDeviceD2Ev@Base 1.0.0
 _ZN4INDI13DomeInterface11MoveAbsDomeEd@Base 1.0.0
 _ZN4INDI13DomeInterface11MoveRelDomeENS0_13DomeDirectionEd@Base 1.0.0
 _ZN4INDI13DomeInterface12SetDomeSpeedEd@Base 1.0.0
 _ZN4INDI13DomeInterface17SetDomeCapabilityEPNS0_14DomeCapabilityE@Base 1.0.0
 _ZN4INDI13DomeInterface17processDomeNumberEPKcS2_PdPPci@Base 1.0.0
 _ZN4INDI13DomeInterface17processDomeSwitchEPKcS2_P7ISStatePPci@Base 1.0.0
 _ZN4INDI13DomeInterface18ControlDomeShutterENS0_16ShutterOperationE@Base 1.0.0
 _ZN4INDI13DomeInterface18initDomePropertiesEPKcS2_@Base 1.0.0
 _ZN4INDI13DomeInterface22GetShutterStatusStringENS0_13ShutterStatusE@Base 1.0.0
 _ZN4INDI13DomeInterface8HomeDomeEv@Base 1.0.0
 _ZN4INDI13DomeInterface8MoveDomeENS0_13DomeDirectionEdi@Base 1.0.0
 _ZN4INDI13DomeInterface8ParkDomeEv@Base 1.0.0
 _ZN4INDI13DomeInterface9AbortDomeEv@Base 1.0.0
 _ZN4INDI13DomeInterfaceC1Ev@Base 1.0.0
 _ZN4INDI13DomeInterfaceC2Ev@Base 1.0.0
 _ZN4INDI13DomeInterfaceD0Ev@Base 1.0.0
 _ZN4INDI13DomeInterfaceD1Ev@Base 1.0.0
 _ZN4INDI13DomeInterfaceD2Ev@Base 1.0.0
 _ZN4INDI15FilterInterface16SelectFilterDoneEi@Base 1.0.0
 _ZN4INDI15FilterInterface17processFilterNameEPKcPPcS4_i@Base 1.0.0
 _ZN4INDI15FilterInterface17processFilterSlotEPKcPdPPc@Base 1.0.0
 _ZN4INDI15FilterInterface20initFilterPropertiesEPKcS2_@Base 1.0.0
 _ZN4INDI15FilterInterfaceC1Ev@Base 1.0.0
 _ZN4INDI15FilterInterfaceC2Ev@Base 1.0.0
 _ZN4INDI15FilterInterfaceD1Ev@Base 1.0.0
 _ZN4INDI15FilterInterfaceD2Ev@Base 1.0.0
 _ZN4INDI15GuiderInterface20initGuiderPropertiesEPKcS2_@Base 1.0.0
 _ZN4INDI15GuiderInterface23processGuiderPropertiesEPKcPdPPci@Base 1.0.0
 _ZN4INDI15GuiderInterfaceC1Ev@Base 1.0.0
 _ZN4INDI15GuiderInterfaceC2Ev@Base 1.0.0
 _ZN4INDI15GuiderInterfaceD1Ev@Base 1.0.0
 _ZN4INDI15GuiderInterfaceD2Ev@Base 1.0.0
 _ZN4INDI16FocuserInterface11MoveFocuserENS0_14FocusDirectionEii@Base 1.0.0
 _ZN4INDI16FocuserInterface12AbortFocuserEv@Base 1.0.0
 _ZN4INDI16FocuserInterface14MoveAbsFocuserEi@Base 1.0.0
 _ZN4INDI16FocuserInterface14MoveRelFocuserENS0_14FocusDirectionEj@Base 1.0.0
 _ZN4INDI16FocuserInterface15SetFocuserSpeedEi@Base 1.0.0
 _ZN4INDI16FocuserInterface20SetFocuserCapabilityEPNS0_17FocuserCapabilityE@Base 1.0.0
 _ZN4INDI16FocuserInterface20processFocuserNumberEPKcS2_PdPPci@Base 1.0.0
 _ZN4INDI16FocuserInterface20processFocuserSwitchEPKcS2_P7ISStatePPci@Base 1.0.0
 _ZN4INDI16FocuserInterface21initFocuserPropertiesEPKcS2_@Base 1.0.0
 _ZN4INDI16FocuserInterfaceC1Ev@Base 1.0.0
 _ZN4INDI16FocuserInterfaceC2Ev@Base 1.0.0
 _ZN4INDI16FocuserInterfaceD0Ev@Base 1.0.0
 _ZN4INDI16FocuserInterfaceD1Ev@Base 1.0.0
 _ZN4INDI16FocuserInterfaceD2Ev@Base 1.0.0
 _ZN4INDI3CCD10GuideNorthEf@Base 1.0.0
 _ZN4INDI3CCD10GuideSouthEf@Base 1.0.0
 _ZN4INDI3CCD10uploadFileEP7CCDChipPKvmbb@Base 1.0.0
 _ZN4INDI3CCD11ISNewNumberEPKcS2_PdPPci@Base 1.0.0
 _ZN4INDI3CCD11ISNewSwitchEPKcS2_P7ISStatePPci@Base 1.0.0
 _ZN4INDI3CCD12SetCCDParamsEiiiff@Base 1.0.0
 _ZN4INDI3CCD12UpdateCCDBinEii@Base 1.0.0
 _ZN4INDI3CCD12getFileIndexEPKcS2_S2_@Base 1.0.0
 _ZN4INDI3CCD13AbortExposureEv@Base 1.0.0
 _ZN4INDI3CCD13ISSnoopDeviceEP8_xml_ele@Base 1.0.0
 _ZN4INDI3CCD13StartExposureEf@Base 1.0.0
 _ZN4INDI3CCD14SetTemperatureEd@Base 1.0.0
 _ZN4INDI3CCD14UpdateCCDFrameEiiii@Base 1.0.0
 _ZN4INDI3CCD14initPropertiesEv@Base 1.0.0
 _ZN4INDI3CCD15ISGetPropertiesEPKc@Base 1.0.0
 _ZN4INDI3CCD15SetGuiderParamsEiiiff@Base 1.0.0
 _ZN4INDI3CCD15UpdateGuiderBinEii@Base 1.0.0
 _ZN4INDI3CCD15addFITSKeywordsEP8fitsfileP7CCDChip@Base 1.0.0
 _ZN4INDI3CCD15saveConfigItemsEP8_IO_FILE@Base 1.0.0
 _ZN4INDI3CCD16ExposureCompleteEP7CCDChip@Base 1.0.0
 _ZN4INDI3CCD16SetCCDCapabilityEPNS0_13CCDCapabilityE@Base 1.0.0
 _ZN4INDI3CCD16updatePropertiesEv@Base 1.0.0
 _ZN4INDI3CCD17UpdateGuiderFrameEiiii@Base 1.0.0
 _ZN4INDI3CCD17fits_update_key_sEP8fitsfileiSsPvSsPi@Base 1.0.0
 _ZN4INDI3CCD18AbortGuideExposureEv@Base 1.0.0
 _ZN4INDI3CCD18StartGuideExposureEf@Base 1.0.0
 _ZN4INDI3CCD18UpdateCCDFrameTypeEN7CCDChip9CCD_FRAMEE@Base 1.0.0
 _ZN4INDI3CCD20activeDevicesUpdatedEv@Base 1.0.0
 _ZN4INDI3CCD21UpdateGuiderFrameTypeEN7CCDChip9CCD_FRAMEE@Base 1.0.0
 _ZN4INDI3CCD9GuideEastEf@Base 1.0.0
 _ZN4INDI3CCD9GuideWestEf@Base 1.0.0
 _ZN4INDI3CCD9ISNewTextEPKcS2_PPcS4_i@Base 1.0.0
 _ZN4INDI3CCD9getMinMaxEPdS1_P7CCDChip@Base 1.0.0
 _ZN4INDI3CCDC1Ev@Base 1.0.0
 _ZN4INDI3CCDC2Ev@Base 1.0.0
 _ZN4INDI3CCDD0Ev@Base 1.0.0
 _ZN4INDI3CCDD1Ev@Base 1.0.0
 _ZN4INDI3CCDD2Ev@Base 1.0.0
 _ZN4INDI4Dome11GetTargetAzERdS1_S1_S1_@Base 1.0.0
 _ZN4INDI4Dome11ISNewNumberEPKcS2_PdPPci@Base 1.0.0
 _ZN4INDI4Dome11ISNewSwitchEPKcS2_P7ISStatePPci@Base 1.0.0
 _ZN4INDI4Dome12CheckHorizonEddd@Base 1.0.0
 _ZN4INDI4Dome12IntersectionE7point3DS1_S1_dRdS2_@Base 1.0.0
 _ZN4INDI4Dome12buttonHelperEPKc7ISStatePv@Base 1.0.0
 _ZN4INDI4Dome13ISSnoopDeviceEP8_xml_ele@Base 1.0.0
 _ZN4INDI4Dome13OpticalCenterE7point3DdddRS1_@Base 1.0.0
 _ZN4INDI4Dome13OpticalVectorE7point3DddRS1_@Base 1.0.0
 _ZN4INDI4Dome13processButtonEPKc7ISState@Base 1.0.0
 _ZN4INDI4Dome14UpdateAutoSyncEv@Base 1.0.0
 _ZN4INDI4Dome14initPropertiesEv@Base 1.0.0
 _ZN4INDI4Dome15ISGetPropertiesEPKc@Base 1.0.0
 _ZN4INDI4Dome15saveConfigItemsEP8_IO_FILE@Base 1.0.0
 _ZN4INDI4Dome16updatePropertiesEv@Base 1.0.0
 _ZN4INDI4Dome17UpdateMountCoordsEv@Base 1.0.0
 _ZN4INDI4Dome3CscEd@Base 1.0.0
 _ZN4INDI4Dome3SecEd@Base 1.0.0
 _ZN4INDI4Dome9ISNewTextEPKcS2_PPcS4_i@Base 1.0.0
 _ZN4INDI4DomeC1Ev@Base 1.0.0
 _ZN4INDI4DomeC2Ev@Base 1.0.0
 _ZN4INDI4DomeD0Ev@Base 1.0.0
 _ZN4INDI4DomeD1Ev@Base 1.0.0
 _ZN4INDI4DomeD2Ev@Base 1.0.0
 _ZN4INDI6Logger11DebugLevelSE@Base 1.0.0
 _ZN4INDI6Logger11ISNewSwitchEPKcS2_P7ISStatePPci@Base 1.0.0
 _ZN4INDI6Logger11customLevelE@Base 1.0.0
 _ZN4INDI6Logger11getInstanceEv@Base 1.0.0
 _ZN4INDI6Logger12DebugLevelSPE@Base 1.0.0
 _ZN4INDI6Logger12parentDeviceE@Base 1.0.0
 _ZN4INDI6Logger13LoggingLevelSE@Base 1.0.0
 _ZN4INDI6Logger13addDebugLevelEPKcS2_@Base 1.0.0
 _ZN4INDI6Logger14ConfigurationSE@Base 1.0.0
 _ZN4INDI6Logger14LoggingLevelSPE@Base 1.0.0
 _ZN4INDI6Logger14configuration_E@Base 1.0.0
 _ZN4INDI6Logger14initPropertiesEPNS_13DefaultDeviceE@Base 1.0.0
 _ZN4INDI6Logger15ConfigurationSPE@Base 1.0.0
 _ZN4INDI6Logger15DebugLevelSInitE@Base 1.0.0
 _ZN4INDI6Logger16updatePropertiesEb@Base 1.0.0
 _ZN4INDI6Logger17LoggingLevelSInitE@Base 1.0.0
 _ZN4INDI6Logger19fileVerbosityLevel_E@Base 1.0.0
 _ZN4INDI6Logger20rememberscreenlevel_E@Base 1.0.0
 _ZN4INDI6Logger21screenVerbosityLevel_E@Base 1.0.0
 _ZN4INDI6Logger2m_E@Base 1.0.0
 _ZN4INDI6Logger4TagsE@Base 1.0.0
 _ZN4INDI6Logger4rankEj@Base 1.0.0
 _ZN4INDI6Logger5printEPKcjRKSsiS2_z@Base 1.0.0
 _ZN4INDI6Logger8logFile_E@Base 1.0.0
 _ZN4INDI6Logger9configureERKSsNS0_11loggerConf_Eii@Base 1.0.0
 _ZN4INDI6LoggerC1Ev@Base 1.0.0
 _ZN4INDI6LoggerC2Ev@Base 1.0.0
 _ZN4INDI6LoggerD1Ev@Base 1.0.0
 _ZN4INDI6LoggerD2Ev@Base 1.0.0
 _ZN4INDI7Focuser11ISNewNumberEPKcS2_PdPPci@Base 1.0.0
 _ZN4INDI7Focuser11ISNewSwitchEPKcS2_P7ISStatePPci@Base 1.0.0
 _ZN4INDI7Focuser12buttonHelperEPKc7ISStatePv@Base 1.0.0
 _ZN4INDI7Focuser13ISSnoopDeviceEP8_xml_ele@Base 1.0.0
 _ZN4INDI7Focuser13processButtonEPKc7ISState@Base 1.0.0
 _ZN4INDI7Focuser14initPropertiesEv@Base 1.0.0
 _ZN4INDI7Focuser15ISGetPropertiesEPKc@Base 1.0.0
 _ZN4INDI7Focuser15saveConfigItemsEP8_IO_FILE@Base 1.0.0
 _ZN4INDI7Focuser16updatePropertiesEv@Base 1.0.0
 _ZN4INDI7Focuser9ISNewTextEPKcS2_PPcS4_i@Base 1.0.0
 _ZN4INDI7FocuserC1Ev@Base 1.0.0
 _ZN4INDI7FocuserC2Ev@Base 1.0.0
 _ZN4INDI7FocuserD0Ev@Base 1.0.0
 _ZN4INDI7FocuserD1Ev@Base 1.0.0
 _ZN4INDI7FocuserD2Ev@Base 1.0.0
 _ZN4INDI8Property10setDynamicEb@Base 1.0.0
 _ZN4INDI8Property11setPropertyEPv@Base 1.0.0
 _ZN4INDI8Property12getGroupNameEv@Base 1.0.0
 _ZN4INDI8Property13getDeviceNameEv@Base 1.0.0
 _ZN4INDI8Property13getPermissionEv@Base 1.0.0
 _ZN4INDI8Property13setBaseDeviceEPNS_10BaseDeviceE@Base 1.0.0
 _ZN4INDI8Property13setRegisteredEb@Base 1.0.0
 _ZN4INDI8Property7getBLOBEv@Base 1.0.0
 _ZN4INDI8Property7getNameEv@Base 1.0.0
 _ZN4INDI8Property7getTextEv@Base 1.0.0
 _ZN4INDI8Property7setTypeE9INDI_TYPE@Base 1.0.0
 _ZN4INDI8Property8getLabelEv@Base 1.0.0
 _ZN4INDI8Property8getLightEv@Base 1.0.0
 _ZN4INDI8Property8getStateEv@Base 1.0.0
 _ZN4INDI8Property9getNumberEv@Base 1.0.0
 _ZN4INDI8Property9getSwitchEv@Base 1.0.0
 _ZN4INDI8PropertyC1Ev@Base 1.0.0
 _ZN4INDI8PropertyC2Ev@Base 1.0.0
 _ZN4INDI8PropertyD1Ev@Base 1.0.0
 _ZN4INDI8PropertyD2Ev@Base 1.0.0
 _ZN4INDI9Telescope10DisconnectEv@Base 1.0.0
 _ZN4INDI9Telescope10updateTimeEP7ln_dated@Base 1.0.0
 _ZN4INDI9Telescope11ISNewNumberEPKcS2_PdPPci@Base 1.0.0
 _ZN4INDI9Telescope11ISNewSwitchEPKcS2_P7ISStatePPci@Base 1.0.0
 _ZN4INDI9Telescope13ISSnoopDeviceEP8_xml_ele@Base 1.0.0
 _ZN4INDI9Telescope14initPropertiesEv@Base 1.0.0
 _ZN4INDI9Telescope14updateLocationEddd@Base 1.0.0
 _ZN4INDI9Telescope15ISGetPropertiesEPKc@Base 1.0.0
 _ZN4INDI9Telescope15saveConfigItemsEP8_IO_FILE@Base 1.0.0
 _ZN4INDI9Telescope16updatePropertiesEv@Base 1.0.0
 _ZN4INDI9Telescope22SetTelescopeCapabilityEPNS0_19TelescopeCapabilityE@Base 1.0.0
 _ZN4INDI9Telescope4ParkEv@Base 1.0.0
 _ZN4INDI9Telescope4SyncEdd@Base 1.0.0
 _ZN4INDI9Telescope6MoveNSENS0_17TelescopeMotionNSENS0_22TelescopeMotionCommandE@Base 1.0.0
 _ZN4INDI9Telescope6MoveWEENS0_17TelescopeMotionWEENS0_22TelescopeMotionCommandE@Base 1.0.0
 _ZN4INDI9Telescope7ConnectEPKc@Base 1.0.0
 _ZN4INDI9Telescope7ConnectEv@Base 1.0.0
 _ZN4INDI9Telescope8NewRaDecEdd@Base 1.0.0
 _ZN4INDI9Telescope8TimerHitEv@Base 1.0.0
 _ZN4INDI9Telescope9ISNewTextEPKcS2_PPcS4_i@Base 1.0.0
 _ZN4INDI9TelescopeC1Ev@Base 1.0.0
 _ZN4INDI9TelescopeC2Ev@Base 1.0.0
 _ZN4INDI9TelescopeD0Ev@Base 1.0.0
 _ZN4INDI9TelescopeD1Ev@Base 1.0.0
 _ZN4INDI9TelescopeD2Ev@Base 1.0.0
 _ZN4INDI9USBDevice10FindDeviceEiii@Base 1.0.0
 _ZN4INDI9USBDevice13FindEndpointsEv@Base 1.0.0
 _ZN4INDI9USBDevice13ReadInterruptEPhii@Base 1.0.0
 _ZN4INDI9USBDevice14ControlMessageEhhjjPhh@Base 1.0.0
 _ZN4INDI9USBDevice14WriteInterruptEPhii@Base 1.0.0
 _ZN4INDI9USBDevice4OpenEv@Base 1.0.0
 _ZN4INDI9USBDevice5CloseEv@Base 1.0.0
 _ZN4INDI9USBDevice8ReadBulkEPhii@Base 1.0.0
 _ZN4INDI9USBDevice9WriteBulkEPhii@Base 1.0.0
 _ZN4INDI9USBDeviceC1Ev@Base 1.0.0
 _ZN4INDI9USBDeviceC2Ev@Base 1.0.0
 _ZN4INDI9USBDeviceD0Ev@Base 1.0.0
 _ZN4INDI9USBDeviceD1Ev@Base 1.0.0
 _ZN4INDI9USBDeviceD2Ev@Base 1.0.0
 _ZN5PPort11registerBitEPKvi@Base 1.0.0
 _ZN5PPort13unregisterBitEPKvi@Base 1.0.0
 _ZN5PPort5resetEv@Base 1.0.0
 _ZN5PPort6commitEv@Base 1.0.0
 _ZN5PPort6setBitEPKvib@Base 1.0.0
 _ZN5PPort7setPortEi@Base 1.0.0
 _ZN5PPortC1Ei@Base 1.0.0
 _ZN5PPortC1Ev@Base 1.0.0
 _ZN5PPortC2Ei@Base 1.0.0
 _ZN5PPortC2Ev@Base 1.0.0
 _ZN5PPortD1Ev@Base 1.0.0
 _ZN5PPortD2Ev@Base 1.0.0
 _ZN6port_tC1Ei@Base 1.0.0
 _ZN6port_tC2Ei@Base 1.0.0
 _ZN6port_tD1Ev@Base 1.0.0
 _ZN6port_tD2Ev@Base 1.0.0
 _ZN7CCDChip12setFrameTypeENS_9CCD_FRAMEE@Base 1.0.0
 _ZN7CCDChip12setPixelSizeEff@Base 1.0.0
 _ZN7CCDChip13setInterlacedEb@Base 1.0.0
 _ZN7CCDChip13setMinMaxStepEPKcS1_dddb@Base 1.0.0
 _ZN7CCDChip13setResolutionEii@Base 1.0.0
 _ZN7CCDChip15setExposureLeftEd@Base 1.0.0
 _ZN7CCDChip16getFrameTypeNameENS_9CCD_FRAMEE@Base 1.0.0
 _ZN7CCDChip17setExposureFailedEv@Base 1.0.0
 _ZN7CCDChip17setImageExtensionEPKc@Base 1.0.0
 _ZN7CCDChip18setFrameBufferSizeEib@Base 1.0.0
 _ZN7CCDChip19setExposureDurationEd@Base 1.0.0
 _ZN7CCDChip20getExposureStartTimeEv@Base 1.0.0
 _ZN7CCDChip6setBPPEi@Base 1.0.0
 _ZN7CCDChip6setBinEii@Base 1.0.0
 _ZN7CCDChip8setFrameEiiii@Base 1.0.0
 _ZN7CCDChip8setNAxisEi@Base 1.0.0
 _ZN7CCDChipC1Ev@Base 1.0.0
 _ZN7CCDChipC2Ev@Base 1.0.0
 _ZN7CCDChipD1Ev@Base 1.0.0
 _ZN7CCDChipD2Ev@Base 1.0.0
 _ZN9V4L2_Base10connectCamEPKcPciii@Base 1.0.0
 _ZN9V4L2_Base10errno_exitEPKcPc@Base 1.0.0
 _ZN9V4L2_Base10findMinMaxEv@Base 1.0.0
 _ZN9V4L2_Base10getControlEjPdPc@Base 1.0.0
 _ZN9V4L2_Base10init_userpEj@Base 1.0.0
 _ZN9V4L2_Base10query_ctrlEjRdS0_S0_S0_Pc@Base 1.0.0
 _ZN9V4L2_Base10read_frameEPc@Base 1.0.0
 _ZN9V4L2_Base11getcroprectEv@Base 1.0.0
 _ZN9V4L2_Base11init_deviceEPc@Base 1.0.0
 _ZN9V4L2_Base11open_deviceEPKcPc@Base 1.0.0
 _ZN9V4L2_Base11setRecorderEP13V4L2_Recorder@Base 1.0.0
 _ZN9V4L2_Base11setcroprectEiiiiPc@Base 1.0.0
 _ZN9V4L2_Base12check_deviceEPc@Base 1.0.0
 _ZN9V4L2_Base12close_deviceEv@Base 1.0.0
 _ZN9V4L2_Base12getRGBBufferEv@Base 1.0.0
 _ZN9V4L2_Base13disconnectCamEb@Base 1.0.0
 _ZN9V4L2_Base13getDeviceNameEv@Base 1.0.0
 _ZN9V4L2_Base13getMaxMinSizeERiS0_S0_S0_@Base 1.0.0
 _ZN9V4L2_Base13getframeratesEP22_ISwitchVectorPropertyP22_INumberVectorProperty@Base 1.0.0
 _ZN9V4L2_Base13queryControlsEP22_INumberVectorPropertyPjPP22_ISwitchVectorPropertyS2_PKcS7_@Base 1.0.0
 _ZN9V4L2_Base13setINTControlEjdPc@Base 1.0.0
 _ZN9V4L2_Base13setOPTControlEjjPc@Base 1.0.0
 _ZN9V4L2_Base13uninit_deviceEPc@Base 1.0.0
 _ZN9V4L2_Base14enumerate_ctrlEv@Base 1.0.0
 _ZN9V4L2_Base14enumerate_menuEv@Base 1.0.0
 _ZN9V4L2_Base14getColorBufferEv@Base 1.0.0
 _ZN9V4L2_Base14isLXmodCapableEv@Base 1.0.0
 _ZN9V4L2_Base14setcapturesizeEjjPc@Base 1.0.0
 _ZN9V4L2_Base14stop_capturingEPc@Base 1.0.0
 _ZN9V4L2_Base15getcapturesizesEP22_ISwitchVectorPropertyP22_INumberVectorProperty@Base 1.0.0
 _ZN9V4L2_Base15pwcsetframerateE10v4l2_fractPc@Base 1.0.0
 _ZN9V4L2_Base15start_capturingEPc@Base 1.0.0
 _ZN9V4L2_Base15stdgetframerateEv@Base 1.0.0
 _ZN9V4L2_Base15stdsetframerateE10v4l2_fractPc@Base 1.0.0
 _ZN9V4L2_Base16queryExtControlsEP22_INumberVectorPropertyPjPP22_ISwitchVectorPropertyS2_PKcS7_@Base 1.0.0
 _ZN9V4L2_Base16queryINTControlsEP22_INumberVectorProperty@Base 1.0.0
 _ZN9V4L2_Base16registerCallbackEPFvPvES0_@Base 1.0.0
 _ZN9V4L2_Base16setcaptureformatEjPc@Base 1.0.0
 _ZN9V4L2_Base17getcaptureformatsEP22_ISwitchVectorProperty@Base 1.0.0
 _ZN9V4L2_Base18enumerate_ext_ctrlEv@Base 1.0.0
 _ZN9V4L2_Base4getUEv@Base 1.0.0
 _ZN9V4L2_Base4getVEv@Base 1.0.0
 _ZN9V4L2_Base4getYEv@Base 1.0.0
 _ZN9V4L2_Base6xioctlEiiPv@Base 1.0.0
 _ZN9V4L2_Base7setSizeEii@Base 1.0.0
 _ZN9V4L2_Base8doDecodeEb@Base 1.0.0
 _ZN9V4L2_Base8doRecordEb@Base 1.0.0
 _ZN9V4L2_Base8getWidthEv@Base 1.0.0
 _ZN9V4L2_Base8newFrameEiPv@Base 1.0.0
 _ZN9V4L2_Base8setinputEjPc@Base 1.0.0
 _ZN9V4L2_Base9getFormatEv@Base 1.0.0
 _ZN9V4L2_Base9getHeightEv@Base 1.0.0
 _ZN9V4L2_Base9getinputsEP22_ISwitchVectorProperty@Base 1.0.0
 _ZN9V4L2_Base9init_mmapEPc@Base 1.0.0
 _ZN9V4L2_Base9init_readEj@Base 1.0.0
 _ZN9V4L2_BaseC1Ev@Base 1.0.0
 _ZN9V4L2_BaseC2Ev@Base 1.0.0
 _ZN9V4L2_BaseD0Ev@Base 1.0.0
 _ZN9V4L2_BaseD1Ev@Base 1.0.0
 _ZN9V4L2_BaseD2Ev@Base 1.0.0
 _ZNK4INDI13DefaultDevice22getInterfaceDescriptorEv@Base 1.0.0
 _ZNK5PPort13isRegisterBitEPKvi@Base 1.0.0
 _ZNK7CCDChip8getNAxisEv@Base 1.0.0
 _ZNKSt5ctypeIcE8do_widenEc@Base 1.0.0
 _ZNSt14_Function_base13_Base_managerIPFvPKc7ISStatePvEE10_M_managerERSt9_Any_dataRKS8_St18_Manager_operation@Base 1.0.0
 _ZNSt14_Function_base13_Base_managerIPFvPKcddPvEE10_M_managerERSt9_Any_dataRKS7_St18_Manager_operation@Base 1.0.0
 _ZNSt14_Function_base13_Base_managerIPFvPKciPvEE10_M_managerERSt9_Any_dataRKS7_St18_Manager_operation@Base 1.0.0
 (optional=templinst)_ZNSt17_Function_handlerIFvPKc7ISStatePvEPFvS1_iS3_EE9_M_invokeERKSt9_Any_dataOS1_OS2_OS3_@Base 1.0.0
 (optional=gccinternal)_ZNSt17_Function_handlerIFvPKc7ISStatePvEPFvS1_iS3_EE9_M_invokeERKSt9_Any_dataS1_S2_S3_@Base 1.0.0
 (optional=templinst)_ZNSt17_Function_handlerIFvPKc7ISStatePvEPS4_E9_M_invokeERKSt9_Any_dataOS1_OS2_OS3_@Base 1.0.0
 (optional=gccinternal)_ZNSt17_Function_handlerIFvPKc7ISStatePvEPS4_E9_M_invokeERKSt9_Any_dataS1_S2_S3_@Base 1.0.0
 (optional=templinst)_ZNSt17_Function_handlerIFvPKcdPvEPFvS1_iS2_EE9_M_invokeERKSt9_Any_dataOS1_OdOS2_@Base 1.0.0
 (optional=gccinternal)_ZNSt17_Function_handlerIFvPKcdPvEPFvS1_iS2_EE9_M_invokeERKSt9_Any_dataS1_dS2_@Base 1.0.0
 (optional=templinst)_ZNSt17_Function_handlerIFvPKcddPvEPS3_E9_M_invokeERKSt9_Any_dataOS1_OdSA_OS2_@Base 1.0.0
 (optional=gccinternal)_ZNSt17_Function_handlerIFvPKcddPvEPS3_E9_M_invokeERKSt9_Any_dataS1_ddS2_@Base 1.0.0
 _ZNSt6vectorIP12V4L2_DecoderSaIS1_EE19_M_emplace_back_auxIIS1_EEEvDpOT_@Base 1.0.0
 _ZNSt6vectorIP12V4L2_DecoderSaIS1_EE19_M_emplace_back_auxIJS1_EEEvDpOT_@Base 1.0.0
 _ZNSt6vectorIP13V4L2_RecorderSaIS1_EE19_M_emplace_back_auxIIS1_EEEvDpOT_@Base 1.0.0
 _ZNSt6vectorIP13V4L2_RecorderSaIS1_EE19_M_emplace_back_auxIJS1_EEEvDpOT_@Base 1.0.0
 _ZNSt6vectorIPN4INDI8PropertyESaIS2_EE19_M_emplace_back_auxIIRKS2_EEEvDpOT_@Base 1.0.0
 _ZNSt6vectorIPN4INDI8PropertyESaIS2_EE19_M_emplace_back_auxIJRKS2_EEEvDpOT_@Base 1.0.0
 (optional=templinst)_ZNSt6vectorIPN4INDI8PropertyESaIS2_EE8_M_eraseEN9__gnu_cxx17__normal_iteratorIPS2_S4_EE@Base 1.0.0
 _ZNSt6vectorISsSaISsEE12emplace_backIISsEEEvDpOT_@Base 1.0.0
 _ZNSt6vectorISsSaISsEE12emplace_backIJSsEEEvDpOT_@Base 1.0.0
 _ZNSt6vectorISsSaISsEE19_M_emplace_back_auxIIRKSsEEEvDpOT_@Base 1.0.0
 _ZNSt6vectorISsSaISsEE19_M_emplace_back_auxIISsEEEvDpOT_@Base 1.0.0
 _ZNSt6vectorISsSaISsEE19_M_emplace_back_auxIJRKSsEEEvDpOT_@Base 1.0.0
 _ZNSt6vectorISsSaISsEE19_M_emplace_back_auxIJSsEEEvDpOT_@Base 1.0.0
 _ZNSt6vectorISsSaISsEED1Ev@Base 1.0.0
 _ZNSt6vectorISsSaISsEED2Ev@Base 1.0.0
 _ZNSt6vectorIjSaIjEE19_M_emplace_back_auxIIRKjEEEvDpOT_@Base 1.0.0
 _ZNSt6vectorIjSaIjEE19_M_emplace_back_auxIJRKjEEEvDpOT_@Base 1.0.0
 _ZNSt8_Rb_treeIjSt4pairIKjPN20V4L2_Builtin_Decoder6formatEESt10_Select1stIS5_ESt4lessIjESaIS5_EE16_M_insert_uniqueIS0_IjS4_EEES0_ISt17_Rb_tree_iteratorIS5_EbEOT_@Base 1.0.0
 _ZNSt8_Rb_treeIjSt4pairIKjPN20V4L2_Builtin_Decoder6formatEESt10_Select1stIS5_ESt4lessIjESaIS5_EE24_M_get_insert_unique_posERS1_@Base 1.0.0
 _ZNSt8_Rb_treeIjSt4pairIKjPN20V4L2_Builtin_Decoder6formatEESt10_Select1stIS5_ESt4lessIjESaIS5_EE29_M_get_insert_hint_unique_posESt23_Rb_tree_const_iteratorIS5_ERS1_@Base 1.0.0
 _ZNSt8_Rb_treeIjSt4pairIKjPN20V4L2_Builtin_Decoder6formatEESt10_Select1stIS5_ESt4lessIjESaIS5_EE8_M_eraseEPSt13_Rb_tree_nodeIS5_E@Base 1.0.0
 _ZTI12SER_Recorder@Base 1.0.0
 _ZTI12V4L2_Decoder@Base 1.0.0
 _ZTI13V4L2_Recorder@Base 1.0.0
 _ZTI20V4L2_Builtin_Decoder@Base 1.0.0
 _ZTI9V4L2_Base@Base 1.0.0
 _ZTIFvPKc7ISStatePvE@Base 1.0.0
 _ZTIFvPKcddPvE@Base 1.0.0
 _ZTIFvPKciPvE@Base 1.0.0
 _ZTIN4INDI10BaseDeviceE@Base 1.0.0
 _ZTIN4INDI10ControllerE@Base 1.0.0
 _ZTIN4INDI11FilterWheelE@Base 1.0.0
 _ZTIN4INDI13DefaultDeviceE@Base 1.0.0
 _ZTIN4INDI13DomeInterfaceE@Base 1.0.0
 _ZTIN4INDI15FilterInterfaceE@Base 1.0.0
 _ZTIN4INDI15GuiderInterfaceE@Base 1.0.0
 _ZTIN4INDI16FocuserInterfaceE@Base 1.0.0
 _ZTIN4INDI3CCDE@Base 1.0.0
 _ZTIN4INDI4DomeE@Base 1.0.0
 _ZTIN4INDI7FocuserE@Base 1.0.0
 _ZTIN4INDI9TelescopeE@Base 1.0.0
 _ZTIN4INDI9USBDeviceE@Base 1.0.0
 _ZTIPFvPKc7ISStatePvE@Base 1.0.0
 _ZTIPFvPKcddPvE@Base 1.0.0
 _ZTIPFvPKciPvE@Base 1.0.0
 _ZTS12SER_Recorder@Base 1.0.0
 _ZTS12V4L2_Decoder@Base 1.0.0
 _ZTS13V4L2_Recorder@Base 1.0.0
 _ZTS20V4L2_Builtin_Decoder@Base 1.0.0
 _ZTS9V4L2_Base@Base 1.0.0
 _ZTSFvPKc7ISStatePvE@Base 1.0.0
 _ZTSFvPKcddPvE@Base 1.0.0
 _ZTSFvPKciPvE@Base 1.0.0
 _ZTSN4INDI10BaseDeviceE@Base 1.0.0
 _ZTSN4INDI10ControllerE@Base 1.0.0
 _ZTSN4INDI11FilterWheelE@Base 1.0.0
 _ZTSN4INDI13DefaultDeviceE@Base 1.0.0
 _ZTSN4INDI13DomeInterfaceE@Base 1.0.0
 _ZTSN4INDI15FilterInterfaceE@Base 1.0.0
 _ZTSN4INDI15GuiderInterfaceE@Base 1.0.0
 _ZTSN4INDI16FocuserInterfaceE@Base 1.0.0
 _ZTSN4INDI3CCDE@Base 1.0.0
 _ZTSN4INDI4DomeE@Base 1.0.0
 _ZTSN4INDI7FocuserE@Base 1.0.0
 _ZTSN4INDI9TelescopeE@Base 1.0.0
 _ZTSN4INDI9USBDeviceE@Base 1.0.0
 _ZTSPFvPKc7ISStatePvE@Base 1.0.0
 _ZTSPFvPKcddPvE@Base 1.0.0
 _ZTSPFvPKciPvE@Base 1.0.0
 _ZTV12SER_Recorder@Base 1.0.0
 _ZTV12V4L2_Decoder@Base 1.0.0
 _ZTV13V4L2_Recorder@Base 1.0.0
 _ZTV20V4L2_Builtin_Decoder@Base 1.0.0
 _ZTV9V4L2_Base@Base 1.0.0
 _ZTVN4INDI10ControllerE@Base 1.0.0
 _ZTVN4INDI11FilterWheelE@Base 1.0.0
 _ZTVN4INDI13DefaultDeviceE@Base 1.0.0
 _ZTVN4INDI13DomeInterfaceE@Base 1.0.0
 _ZTVN4INDI15FilterInterfaceE@Base 1.0.0
 _ZTVN4INDI15GuiderInterfaceE@Base 1.0.0
 _ZTVN4INDI16FocuserInterfaceE@Base 1.0.0
 _ZTVN4INDI3CCDE@Base 1.0.0
 _ZTVN4INDI4DomeE@Base 1.0.0
 _ZTVN4INDI7FocuserE@Base 1.0.0
 _ZTVN4INDI9TelescopeE@Base 1.0.0
 _ZTVN4INDI9USBDeviceE@Base 1.0.0
 addCallback@Base 1.0.0
 addTimer@Base 1.0.0
 addWorkProc@Base 1.0.0
 addXMLAtt@Base 1.0.0
 addXMLEle@Base 1.0.0
 appXMLEle@Base 1.0.0
 bayer16_2_rgb24@Base 1.0.0
 bayer2rgb24@Base 1.0.0
 bayer_rggb_2rgb24@Base 1.0.0
 ccvt_420p_bgr24@Base 1.0.0
 ccvt_420p_bgr32@Base 1.0.0
 ccvt_420p_rgb24@Base 1.0.0
 ccvt_420p_rgb32@Base 1.0.0
 ccvt_bgr24_bgr32@Base 1.0.0
 ccvt_bgr24_rgb32@Base 1.0.0
 ccvt_bgr32_bgr24@Base 1.0.0
 ccvt_bgr32_rgb24@Base 1.0.0
 ccvt_rgb24_bgr32@Base 1.0.0
 ccvt_rgb24_rgb32@Base 1.0.0
 ccvt_rgb32_bgr24@Base 1.0.0
 ccvt_rgb32_rgb24@Base 1.0.0
 ccvt_yuyv_420p@Base 1.0.0
 ccvt_yuyv_bgr32@Base 1.0.0
 ccvt_yuyv_rgb32@Base 1.0.0
 clientMsgCB@Base 1.0.0
 clixml@Base 1.0.0
 cloneXMLEle@Base 1.0.0
 crackDN@Base 1.0.0
 crackIPState@Base 1.0.0
 crackIPerm@Base 1.0.0
 crackISRule@Base 1.0.0
 crackISState@Base 1.0.0
 decode_jpeg_gray_raw@Base 1.0.0
 decode_jpeg_raw@Base 1.0.0
 deferLoop0@Base 1.0.0
 deferLoop@Base 1.0.0
 delLilXML@Base 1.0.0
 delXMLEle@Base 1.0.0
 dispatch@Base 1.0.0
 editXMLAtt@Base 1.0.0
 editXMLEle@Base 1.0.0
 encode_jpeg_raw@Base 1.0.0
 entityXML@Base 1.0.0
 escapeXML@Base 1.0.0
 eventLoop@Base 1.0.0
 extractISOTime@Base 1.0.0
 f_scansexa@Base 1.0.0
 findXMLAtt@Base 1.0.0
 findXMLAttValu@Base 1.0.0
 findXMLEle@Base 1.0.0
 from64tobits@Base 1.0.0
 fs_sexa@Base 1.0.0
 getSexComponents@Base 1.0.0
 isPropDefined@Base 1.0.0
 lilxmlMalloc@Base 1.0.0
 main@Base 1.0.0
 me@Base 1.0.0
 mjpegtoyuv420p@Base 1.0.0
 nXMLAtt@Base 1.0.0
 nXMLEle@Base 1.0.0
 nameXMLAtt@Base 1.0.0
 newLilXML@Base 1.0.0
 nextXMLAtt@Base 1.0.0
 nextXMLEle@Base 1.0.0
 (c++)"non-virtual thunk to INDI::CCD::GuideEast(float)@Base" 1.0.0
 (c++)"non-virtual thunk to INDI::CCD::GuideNorth(float)@Base" 1.0.0
 (c++)"non-virtual thunk to INDI::CCD::GuideSouth(float)@Base" 1.0.0
 (c++)"non-virtual thunk to INDI::CCD::GuideWest(float)@Base" 1.0.0
 (c++)"non-virtual thunk to INDI::Dome::~Dome()@Base" 1.0.0
 (c++)"non-virtual thunk to INDI::FilterWheel::GetFilterNames(char const*)@Base" 1.0.0
 (c++)"non-virtual thunk to INDI::FilterWheel::QueryFilter()@Base" 1.0.0
 (c++)"non-virtual thunk to INDI::FilterWheel::SelectFilter(int)@Base" 1.0.0
 (c++)"non-virtual thunk to INDI::FilterWheel::SetFilterNames()@Base" 1.0.0
 (c++)"non-virtual thunk to INDI::Focuser::~Focuser()@Base" 1.0.0
 nroCheck@Base 1.0.0
 numberFormat@Base 1.0.0
 parentXMLAtt@Base 1.0.0
 parentXMLEle@Base 1.0.0
 parseXML@Base 1.0.0
 pcdataXMLEle@Base 1.0.0
 pcdatalenXMLEle@Base 1.0.0
 permStr@Base 1.0.0
 prXMLEle@Base 1.0.0
 pstateStr@Base 1.0.0
 readXMLEle@Base 1.0.0
 readXMLFile@Base 1.0.0
 rmCallback@Base 1.0.0
 rmTimer@Base 1.0.0
 rmWorkProc@Base 1.0.0
 rmXMLAtt@Base 1.0.0
 roCheck@Base 1.0.0
 ruleStr@Base 1.0.0
 sprXMLEle@Base 1.0.0
 sprlXMLEle@Base 1.0.0
 sstateStr@Base 1.0.0
 stdout_mutex@Base 1.0.0
 tagXMLEle@Base 1.0.0
 timestamp@Base 1.0.0
 to64frombits@Base 1.0.0
 tty_connect@Base 1.0.0
 tty_debug@Base 1.0.0
 tty_disconnect@Base 1.0.0
 tty_error_msg@Base 1.0.0
 tty_read@Base 1.0.0
 tty_read_section@Base 1.0.0
 tty_set_debug@Base 1.0.0
 tty_timeout@Base 1.0.0
 tty_write@Base 1.0.0
 tty_write_string@Base 1.0.0
 valuXMLAtt@Base 1.0.0
 verbose@Base 1.0.0
 xmlv1@Base 1.0.0
