# SymbolsHelper-Confirmed: 0.9.8.1 amd64
libindiAlignmentDriver.so.0 libindialignmentdriver0 #MINVER#
 _ZN4INDI18AlignmentSubsystem10ConvexHull10CheckEulerEiii@Base 0.9.8.1
 _ZN4INDI18AlignmentSubsystem10ConvexHull10CleanEdgesEv@Base 0.9.8.1
 _ZN4INDI18AlignmentSubsystem10ConvexHull10CleanFacesEv@Base 0.9.8.1
 _ZN4INDI18AlignmentSubsystem10ConvexHull10PrintEdgesERSt14basic_ofstreamIcSt11char_traitsIcEE@Base 0.9.8.1
 _ZN4INDI18AlignmentSubsystem10ConvexHull10PrintFacesERSt14basic_ofstreamIcSt11char_traitsIcEE@Base 0.9.8.1
 _ZN4INDI18AlignmentSubsystem10ConvexHull10PrintPointEPNS1_16tVertexStructureE@Base 0.9.8.1
 _ZN4INDI18AlignmentSubsystem10ConvexHull10VolumeSignEPNS1_14tFaceStructureEPNS1_16tVertexStructureE@Base 0.9.8.1
 _ZN4INDI18AlignmentSubsystem10ConvexHull11CheckEndptsEv@Base 0.9.8.1
 _ZN4INDI18AlignmentSubsystem10ConvexHull11ConsistencyEv@Base 0.9.8.1
 _ZN4INDI18AlignmentSubsystem10ConvexHull12MakeConeFaceEPNS1_14tEdgeStructureEPNS1_16tVertexStructureE@Base 0.9.8.1
 _ZN4INDI18AlignmentSubsystem10ConvexHull12MakeNullEdgeEv@Base 0.9.8.1
 _ZN4INDI18AlignmentSubsystem10ConvexHull12MakeNullFaceEv@Base 0.9.8.1
 _ZN4INDI18AlignmentSubsystem10ConvexHull12ReadVerticesEv@Base 0.9.8.1
 _ZN4INDI18AlignmentSubsystem10ConvexHull13CleanVerticesEPPNS1_16tVertexStructureE@Base 0.9.8.1
 _ZN4INDI18AlignmentSubsystem10ConvexHull13ConstructHullEv@Base 0.9.8.1
 _ZN4INDI18AlignmentSubsystem10ConvexHull13MakeNewVertexEdddi@Base 0.9.8.1
 _ZN4INDI18AlignmentSubsystem10ConvexHull13PrintVerticesERSt14basic_ofstreamIcSt11char_traitsIcEE@Base 0.9.8.1
 _ZN4INDI18AlignmentSubsystem10ConvexHull14DoubleTriangleEv@Base 0.9.8.1
 _ZN4INDI18AlignmentSubsystem10ConvexHull14MakeNullVertexEv@Base 0.9.8.1
 _ZN4INDI18AlignmentSubsystem10ConvexHull16EdgeOrderOnFacesEv@Base 0.9.8.1
 _ZN4INDI18AlignmentSubsystem10ConvexHull5PrintEv@Base 0.9.8.1
 _ZN4INDI18AlignmentSubsystem10ConvexHull5ResetEv@Base 0.9.8.1
 _ZN4INDI18AlignmentSubsystem10ConvexHull6AddOneEPNS1_16tVertexStructureE@Base 0.9.8.1
 _ZN4INDI18AlignmentSubsystem10ConvexHull6ChecksEv@Base 0.9.8.1
 _ZN4INDI18AlignmentSubsystem10ConvexHull6SubVecEPiS2_S2_@Base 0.9.8.1
 _ZN4INDI18AlignmentSubsystem10ConvexHull7CleanUpEPPNS1_16tVertexStructureE@Base 0.9.8.1
 _ZN4INDI18AlignmentSubsystem10ConvexHull7MakeCcwEPNS1_14tFaceStructureEPNS1_14tEdgeStructureEPNS1_16tVertexStructureE@Base 0.9.8.1
 _ZN4INDI18AlignmentSubsystem10ConvexHull7VolumeiEPNS1_14tFaceStructureEPNS1_16tVertexStructureE@Base 0.9.8.1
 _ZN4INDI18AlignmentSubsystem10ConvexHull8MakeFaceEPNS1_16tVertexStructureES3_S3_PNS1_14tFaceStructureE@Base 0.9.8.1
 _ZN4INDI18AlignmentSubsystem10ConvexHull8PrintObjEPKc@Base 0.9.8.1
 _ZN4INDI18AlignmentSubsystem10ConvexHull8PrintOutEPKcPNS1_16tVertexStructureE@Base 0.9.8.1
 _ZN4INDI18AlignmentSubsystem10ConvexHull9CollinearEPNS1_16tVertexStructureES3_S3_@Base 0.9.8.1
 _ZN4INDI18AlignmentSubsystem10ConvexHull9ConvexityEv@Base 0.9.8.1
 _ZN4INDI18AlignmentSubsystem10ConvexHullD0Ev@Base 0.9.8.1
 _ZN4INDI18AlignmentSubsystem10ConvexHullD1Ev@Base 0.9.8.1
 _ZN4INDI18AlignmentSubsystem10ConvexHullD2Ev@Base 0.9.8.1
 _ZN4INDI18AlignmentSubsystem10MathPlugin10InitialiseEPNS0_16InMemoryDatabaseE@Base 0.9.8.1
 _ZN4INDI18AlignmentSubsystem10MathPlugin28GetApproximateMountAlignmentEv@Base 0.9.8.1
 _ZN4INDI18AlignmentSubsystem10MathPlugin28SetApproximateMountAlignmentENS0_14MountAlignmentE@Base 0.9.8.1
 _ZN4INDI18AlignmentSubsystem10MathPluginD0Ev@Base 0.9.8.1
 _ZN4INDI18AlignmentSubsystem10MathPluginD1Ev@Base 0.9.8.1
 _ZN4INDI18AlignmentSubsystem10MathPluginD2Ev@Base 0.9.8.1
 _ZN4INDI18AlignmentSubsystem13DBG_ALIGNMENTE@Base 0.9.8.1
 _ZN4INDI18AlignmentSubsystem15BasicMathPlugin10InitialiseEPNS0_16InMemoryDatabaseE@Base 0.9.8.1
 _ZN4INDI18AlignmentSubsystem15BasicMathPlugin15MatrixInvert3x3EP10gsl_matrixS3_@Base 0.9.8.1
 _ZN4INDI18AlignmentSubsystem15BasicMathPlugin20Matrix3x3DeterminantEP10gsl_matrix@Base 0.9.8.1
 _ZN4INDI18AlignmentSubsystem15BasicMathPlugin20MatrixMatrixMultiplyEP10gsl_matrixS3_S3_@Base 0.9.8.1
 _ZN4INDI18AlignmentSubsystem15BasicMathPlugin20MatrixVectorMultiplyEP10gsl_matrixP10gsl_vectorS5_@Base 0.9.8.1
 _ZN4INDI18AlignmentSubsystem15BasicMathPlugin23RayTriangleIntersectionERNS0_24TelescopeDirectionVectorES3_S3_S3_@Base 0.9.8.1
 _ZN4INDI18AlignmentSubsystem15BasicMathPlugin29TransformCelestialToTelescopeEdddRNS0_24TelescopeDirectionVectorE@Base 0.9.8.1
 _ZN4INDI18AlignmentSubsystem15BasicMathPlugin29TransformTelescopeToCelestialERKNS0_24TelescopeDirectionVectorERdS5_@Base 0.9.8.1
 _ZN4INDI18AlignmentSubsystem15BasicMathPlugin5Dump3EPKcP10gsl_vector@Base 0.9.8.1
 _ZN4INDI18AlignmentSubsystem15BasicMathPlugin7Dump3x3EPKcP10gsl_matrix@Base 0.9.8.1
 _ZN4INDI18AlignmentSubsystem15BasicMathPluginC1Ev@Base 0.9.8.1
 _ZN4INDI18AlignmentSubsystem15BasicMathPluginC2Ev@Base 0.9.8.1
 _ZN4INDI18AlignmentSubsystem15BasicMathPluginD0Ev@Base 0.9.8.1
 _ZN4INDI18AlignmentSubsystem15BasicMathPluginD1Ev@Base 0.9.8.1
 _ZN4INDI18AlignmentSubsystem15BasicMathPluginD2Ev@Base 0.9.8.1
 _ZN4INDI18AlignmentSubsystem16InMemoryDatabase12LoadDatabaseEPKc@Base 0.9.8.1
 _ZN4INDI18AlignmentSubsystem16InMemoryDatabase12SaveDatabaseEPKc@Base 0.9.8.1
 _ZN4INDI18AlignmentSubsystem16InMemoryDatabase23SetLoadDatabaseCallbackEPFvPvES2_@Base 0.9.8.1
 _ZN4INDI18AlignmentSubsystem16InMemoryDatabase28GetDatabaseReferencePositionER13ln_lnlat_posn@Base 0.9.8.1
 _ZN4INDI18AlignmentSubsystem16InMemoryDatabase28SetDatabaseReferencePositionEdd@Base 0.9.8.1
 _ZN4INDI18AlignmentSubsystem16InMemoryDatabaseD0Ev@Base 0.9.8.1
 _ZN4INDI18AlignmentSubsystem16InMemoryDatabaseD1Ev@Base 0.9.8.1
 _ZN4INDI18AlignmentSubsystem16InMemoryDatabaseD2Ev@Base 0.9.8.1
 _ZN4INDI18AlignmentSubsystem17BuiltInMathPlugin26CalculateTransformMatricesERKNS0_24TelescopeDirectionVectorES4_S4_S4_S4_S4_P10gsl_matrixS6_@Base 0.9.8.1
 _ZN4INDI18AlignmentSubsystem17BuiltInMathPluginD0Ev@Base 0.9.8.1
 _ZN4INDI18AlignmentSubsystem17BuiltInMathPluginD1Ev@Base 0.9.8.1
 _ZN4INDI18AlignmentSubsystem17BuiltInMathPluginD2Ev@Base 0.9.8.1
 _ZN4INDI18AlignmentSubsystem20MathPluginManagement10InitialiseEPNS0_16InMemoryDatabaseE@Base 0.9.8.1
 _ZN4INDI18AlignmentSubsystem20MathPluginManagement14InitPropertiesEPNS_9TelescopeE@Base 0.9.8.1
 _ZN4INDI18AlignmentSubsystem20MathPluginManagement16EnumeratePluginsEv@Base 0.9.8.1
 _ZN4INDI18AlignmentSubsystem20MathPluginManagement20SaveConfigPropertiesEP8_IO_FILE@Base 0.9.8.1
 _ZN4INDI18AlignmentSubsystem20MathPluginManagement21ProcessTextPropertiesEPNS_9TelescopeEPKcPPcS7_i@Base 0.9.8.1
 _ZN4INDI18AlignmentSubsystem20MathPluginManagement23ProcessSwitchPropertiesEPNS_9TelescopeEPKcP7ISStatePPci@Base 0.9.8.1
 _ZN4INDI18AlignmentSubsystem20MathPluginManagement28GetApproximateMountAlignmentEv@Base 0.9.8.1
 _ZN4INDI18AlignmentSubsystem20MathPluginManagement28SetApproximateMountAlignmentENS0_14MountAlignmentE@Base 0.9.8.1
 _ZN4INDI18AlignmentSubsystem20MathPluginManagement29TransformCelestialToTelescopeEdddRNS0_24TelescopeDirectionVectorE@Base 0.9.8.1
 _ZN4INDI18AlignmentSubsystem20MathPluginManagement29TransformTelescopeToCelestialERKNS0_24TelescopeDirectionVectorERdS5_@Base 0.9.8.1
 _ZN4INDI18AlignmentSubsystem20MathPluginManagement41SetApproximateMountAlignmentFromMountTypeENS1_9MountTypeE@Base 0.9.8.1
 _ZN4INDI18AlignmentSubsystem20MathPluginManagementD0Ev@Base 0.9.8.1
 _ZN4INDI18AlignmentSubsystem20MathPluginManagementD1Ev@Base 0.9.8.1
 _ZN4INDI18AlignmentSubsystem20MathPluginManagementD2Ev@Base 0.9.8.1
 _ZN4INDI18AlignmentSubsystem24TelescopeDirectionVector13RotateAroundYEd@Base 0.9.8.1
 _ZN4INDI18AlignmentSubsystem28AlignmentSubsystemForDrivers14InitPropertiesEPNS_9TelescopeE@Base 0.9.8.1
 _ZN4INDI18AlignmentSubsystem28AlignmentSubsystemForDrivers20SaveConfigPropertiesEP8_IO_FILE@Base 0.9.8.1
 _ZN4INDI18AlignmentSubsystem28AlignmentSubsystemForDrivers21ProcessBlobPropertiesEPNS_9TelescopeEPKcPiS6_PPcS8_S8_i@Base 0.9.8.1
 _ZN4INDI18AlignmentSubsystem28AlignmentSubsystemForDrivers21ProcessTextPropertiesEPNS_9TelescopeEPKcPPcS7_i@Base 0.9.8.1
 _ZN4INDI18AlignmentSubsystem28AlignmentSubsystemForDrivers22MyDatabaseLoadCallbackEPv@Base 0.9.8.1
 _ZN4INDI18AlignmentSubsystem28AlignmentSubsystemForDrivers23ProcessNumberPropertiesEPNS_9TelescopeEPKcPdPPci@Base 0.9.8.1
 _ZN4INDI18AlignmentSubsystem28AlignmentSubsystemForDrivers23ProcessSwitchPropertiesEPNS_9TelescopeEPKcP7ISStatePPci@Base 0.9.8.1
 _ZN4INDI18AlignmentSubsystem28AlignmentSubsystemForDriversC1Ev@Base 0.9.8.1
 _ZN4INDI18AlignmentSubsystem28AlignmentSubsystemForDriversC2Ev@Base 0.9.8.1
 _ZN4INDI18AlignmentSubsystem28AlignmentSubsystemForDriversD0Ev@Base 0.9.8.1
 _ZN4INDI18AlignmentSubsystem28AlignmentSubsystemForDriversD1Ev@Base 0.9.8.1
 _ZN4INDI18AlignmentSubsystem28AlignmentSubsystemForDriversD2Ev@Base 0.9.8.1
 _ZN4INDI18AlignmentSubsystem31MapPropertiesToInMemoryDatabase10UpdateSizeEv@Base 0.9.8.1
 _ZN4INDI18AlignmentSubsystem31MapPropertiesToInMemoryDatabase14InitPropertiesEPNS_9TelescopeE@Base 0.9.8.1
 _ZN4INDI18AlignmentSubsystem31MapPropertiesToInMemoryDatabase14UpdateLocationEddd@Base 0.9.8.1
 _ZN4INDI18AlignmentSubsystem31MapPropertiesToInMemoryDatabase21ProcessBlobPropertiesEPNS_9TelescopeEPKcPiS6_PPcS8_S8_i@Base 0.9.8.1
 _ZN4INDI18AlignmentSubsystem31MapPropertiesToInMemoryDatabase23ProcessNumberPropertiesEPNS_9TelescopeEPKcPdPPci@Base 0.9.8.1
 _ZN4INDI18AlignmentSubsystem31MapPropertiesToInMemoryDatabase23ProcessSwitchPropertiesEPNS_9TelescopeEPKcP7ISStatePPci@Base 0.9.8.1
 _ZN4INDI18AlignmentSubsystem31MapPropertiesToInMemoryDatabaseD0Ev@Base 0.9.8.1
 _ZN4INDI18AlignmentSubsystem31MapPropertiesToInMemoryDatabaseD1Ev@Base 0.9.8.1
 _ZN4INDI18AlignmentSubsystem31MapPropertiesToInMemoryDatabaseD2Ev@Base 0.9.8.1
 _ZN4INDI18AlignmentSubsystem32AlignmentSubsystemForMathPluginsD0Ev@Base 0.9.8.1
 _ZN4INDI18AlignmentSubsystem32AlignmentSubsystemForMathPluginsD1Ev@Base 0.9.8.1
 _ZN4INDI18AlignmentSubsystem32AlignmentSubsystemForMathPluginsD2Ev@Base 0.9.8.1
 _ZN4INDI18AlignmentSubsystem40TelescopeDirectionVectorSupportFunctions47SphericalCoordinateFromTelescopeDirectionVectorENS0_24TelescopeDirectionVectorERdNS1_21AzimuthAngleDirectionES3_NS1_19PolarAngleDirectionE@Base 0.9.8.1
 _ZN4INDI18AlignmentSubsystem40TelescopeDirectionVectorSupportFunctions47TelescopeDirectionVectorFromSphericalCoordinateEdNS1_21AzimuthAngleDirectionEdNS1_19PolarAngleDirectionE@Base 0.9.8.1
 _ZN4INDI18AlignmentSubsystem40TelescopeDirectionVectorSupportFunctionsD0Ev@Base 0.9.8.1
 _ZN4INDI18AlignmentSubsystem40TelescopeDirectionVectorSupportFunctionsD1Ev@Base 0.9.8.1
 _ZN4INDI18AlignmentSubsystem40TelescopeDirectionVectorSupportFunctionsD2Ev@Base 0.9.8.1
 _ZNK4INDI18AlignmentSubsystem16InMemoryDatabase26CheckForDuplicateSyncPointERKNS0_22AlignmentDatabaseEntryEd@Base 0.9.8.1
 (optional=templinst)_ZNSt6vectorIN4INDI18AlignmentSubsystem22AlignmentDatabaseEntryESaIS2_EE13_M_insert_auxEN9__gnu_cxx17__normal_iteratorIPS2_S4_EERKS2_@Base 0.9.8.1
 (optional=templinst)_ZNSt6vectorIN4INDI18AlignmentSubsystem22AlignmentDatabaseEntryESaIS2_EED1Ev@Base 0.9.8.1
 (optional=templinst)_ZNSt6vectorIN4INDI18AlignmentSubsystem22AlignmentDatabaseEntryESaIS2_EED2Ev@Base 0.9.8.1
 (optional=templinst)_ZNSt6vectorIN4INDI18AlignmentSubsystem24TelescopeDirectionVectorESaIS2_EE13_M_insert_auxEN9__gnu_cxx17__normal_iteratorIPS2_S4_EERKS2_@Base 0.9.8.1
 (optional=templinst)_ZNSt6vectorISsSaISsEE13_M_insert_auxEN9__gnu_cxx17__normal_iteratorIPSsS1_EERKSs@Base 0.9.8.1
 (optional=templinst)_ZNSt6vectorISsSaISsEED1Ev@Base 0.9.8.1
 (optional=templinst)_ZNSt6vectorISsSaISsEED2Ev@Base 0.9.8.1
 (optional=templinst)_ZNSt8_Rb_treeIdSt4pairIKdPKN4INDI18AlignmentSubsystem22AlignmentDatabaseEntryEESt10_Select1stIS7_ESt4lessIdESaIS7_EE24_M_get_insert_unique_posERS1_@Base 0.9.8.1
 (optional=templinst)_ZNSt8_Rb_treeIdSt4pairIKdPKN4INDI18AlignmentSubsystem22AlignmentDatabaseEntryEESt10_Select1stIS7_ESt4lessIdESaIS7_EE29_M_get_insert_hint_unique_posESt23_Rb_tree_const_iteratorIS7_ERS1_@Base 0.9.8.1
 (optional=templinst)_ZNSt8_Rb_treeIdSt4pairIKdPKN4INDI18AlignmentSubsystem22AlignmentDatabaseEntryEESt10_Select1stIS7_ESt4lessIdESaIS7_EE8_M_eraseEPSt13_Rb_tree_nodeIS7_E@Base 0.9.8.1
 (optional=templinst)_ZNSt8_Rb_treeIiSt4pairIKiiESt10_Select1stIS2_ESt4lessIiESaIS2_EE24_M_get_insert_unique_posERS1_@Base 0.9.8.1
 (optional=templinst)_ZNSt8_Rb_treeIiSt4pairIKiiESt10_Select1stIS2_ESt4lessIiESaIS2_EE29_M_get_insert_hint_unique_posESt23_Rb_tree_const_iteratorIS2_ERS1_@Base 0.9.8.1
 (optional=templinst)_ZNSt8_Rb_treeIiSt4pairIKiiESt10_Select1stIS2_ESt4lessIiESaIS2_EE8_M_eraseEPSt13_Rb_tree_nodeIS2_E@Base 0.9.8.1
 _ZTIN4INDI18AlignmentSubsystem10ConvexHullE@Base 0.9.8.1
 _ZTIN4INDI18AlignmentSubsystem10MathPluginE@Base 0.9.8.1
 _ZTIN4INDI18AlignmentSubsystem15BasicMathPluginE@Base 0.9.8.1
 _ZTIN4INDI18AlignmentSubsystem16InMemoryDatabaseE@Base 0.9.8.1
 _ZTIN4INDI18AlignmentSubsystem17BuiltInMathPluginE@Base 0.9.8.1
 _ZTIN4INDI18AlignmentSubsystem20MathPluginManagementE@Base 0.9.8.1
 _ZTIN4INDI18AlignmentSubsystem28AlignmentSubsystemForDriversE@Base 0.9.8.1
 _ZTIN4INDI18AlignmentSubsystem31MapPropertiesToInMemoryDatabaseE@Base 0.9.8.1
 _ZTIN4INDI18AlignmentSubsystem32AlignmentSubsystemForMathPluginsE@Base 0.9.8.1
 _ZTIN4INDI18AlignmentSubsystem40TelescopeDirectionVectorSupportFunctionsE@Base 0.9.8.1
 _ZTSN4INDI18AlignmentSubsystem10ConvexHullE@Base 0.9.8.1
 _ZTSN4INDI18AlignmentSubsystem10MathPluginE@Base 0.9.8.1
 _ZTSN4INDI18AlignmentSubsystem15BasicMathPluginE@Base 0.9.8.1
 _ZTSN4INDI18AlignmentSubsystem16InMemoryDatabaseE@Base 0.9.8.1
 _ZTSN4INDI18AlignmentSubsystem17BuiltInMathPluginE@Base 0.9.8.1
 _ZTSN4INDI18AlignmentSubsystem20MathPluginManagementE@Base 0.9.8.1
 _ZTSN4INDI18AlignmentSubsystem28AlignmentSubsystemForDriversE@Base 0.9.8.1
 _ZTSN4INDI18AlignmentSubsystem31MapPropertiesToInMemoryDatabaseE@Base 0.9.8.1
 _ZTSN4INDI18AlignmentSubsystem32AlignmentSubsystemForMathPluginsE@Base 0.9.8.1
 _ZTSN4INDI18AlignmentSubsystem40TelescopeDirectionVectorSupportFunctionsE@Base 0.9.8.1
 _ZTVN4INDI18AlignmentSubsystem10ConvexHullE@Base 0.9.8.1
 _ZTVN4INDI18AlignmentSubsystem10MathPluginE@Base 0.9.8.1
 _ZTVN4INDI18AlignmentSubsystem15BasicMathPluginE@Base 0.9.8.1
 _ZTVN4INDI18AlignmentSubsystem16InMemoryDatabaseE@Base 0.9.8.1
 _ZTVN4INDI18AlignmentSubsystem17BuiltInMathPluginE@Base 0.9.8.1
 _ZTVN4INDI18AlignmentSubsystem20MathPluginManagementE@Base 0.9.8.1
 _ZTVN4INDI18AlignmentSubsystem28AlignmentSubsystemForDriversE@Base 0.9.8.1
 _ZTVN4INDI18AlignmentSubsystem31MapPropertiesToInMemoryDatabaseE@Base 0.9.8.1
 _ZTVN4INDI18AlignmentSubsystem32AlignmentSubsystemForMathPluginsE@Base 0.9.8.1
 _ZTVN4INDI18AlignmentSubsystem40TelescopeDirectionVectorSupportFunctionsE@Base 0.9.8.1
 (c++)"non-virtual thunk to INDI::AlignmentSubsystem::AlignmentSubsystemForDrivers::~AlignmentSubsystemForDrivers()@Base" 0.9.8.1
 (c++)"non-virtual thunk to INDI::AlignmentSubsystem::AlignmentSubsystemForMathPlugins::~AlignmentSubsystemForMathPlugins()@Base" 0.9.8.1
 (c++)"non-virtual thunk to INDI::AlignmentSubsystem::BasicMathPlugin::~BasicMathPlugin()@Base" 0.9.8.1
 (c++)"non-virtual thunk to INDI::AlignmentSubsystem::BuiltInMathPlugin::~BuiltInMathPlugin()@Base" 0.9.8.1
